(dp0
S'METTS MARK'
p1
(dp2
S'to_messages'
p3
I807
sS'deferral_payments'
p4
S'NaN'
p5
sS'res_deff_to_total_stock'
p6
I0
sS'exe_to_total_stock'
p7
I0
sS'expenses'
p8
I94299
sS'poi'
p9
I00
sS'from_poi_to_this_person_to_from_message_ratio'
p10
F1.3103448275862069
sS'deferred_income'
p11
g5
sS'email_address'
p12
S'mark.metts@enron.com'
p13
sS'long_term_incentive'
p14
g5
sS'salary_to_total_payments_ratio'
p15
F0.34448926237513267
sS'res_to_total_stock'
p16
F1.0
sS'restricted_stock_deferred'
p17
g5
sS'shared_receipt_with_poi'
p18
I702
sS'loan_advances'
p19
g5
sS'from_messages'
p20
I29
sS'other'
p21
I1740
sS'expenses_to_total_payments_ratio'
p22
F0.08880825219174121
sS'bonus_to_total_payments_ratio'
p23
F0.5650638004119315
sS'director_fees'
p24
g5
sS'bonus'
p25
I600000
sS'total_stock_value'
p26
I585062
sS'from_poi_to_this_person'
p27
I38
sS'from_this_person_to_poi'
p28
I1
sS'restricted_stock'
p29
I585062
sS'from_this_person_to_poi_to_to_message_ratio'
p30
F0.0012391573729863693
sS'salary'
p31
I365788
sS'long_to_total_payments_ratio'
p32
I0
sS'total_payments'
p33
I1061827
sS'long_term_to_total_payments_ratio'
p34
I0
sS'exercised_stock_options'
p35
g5
sS'total_payments_to_total_stock_value_ratio'
p36
F1.8148965408794282
sS'other_to_total_payments_ratio'
p37
F0.0016386850211946014
sS'deferall_income_to_total_payments_ratio'
p38
I0
sS'shared_receipt_with_poi_to_from_message_ratio'
p39
F24.20689655172414
ssS'BAXTER JOHN C'
p40
(dp41
g3
g5
sg4
I1295738
sg6
I0
sg7
F0.6288601858299968
sg8
I11200
sg9
I00
sg10
I0
sg11
I1386055
sg12
g5
sg14
I1586055
sg15
F0.047406059588491506
sg16
F0.3711398141700032
sg17
g5
sg18
g5
sg19
g5
sg20
g5
sg21
I2660303
sg22
F0.001987809403864834
sg23
F0.21297957898551792
sg24
g5
sg25
I1200000
sg26
I10623258
sg27
g5
sg28
g5
sg29
I3942714
sg30
I0
sg31
I267102
sg32
F0.2814977717898964
sg33
I5634343
sg34
F0.2814977717898964
sg35
I6680544
sg36
F0.5303780629257051
sg37
F0.4721585107615919
sg38
F0.24600117529231003
sg39
I0
ssS'ELLIOTT STEVEN'
p42
(dp43
g3
g5
sg4
g5
sg6
I0
sg7
F0.7322260877246963
sg8
I78552
sg9
I00
sg10
I0
sg11
I400729
sg12
S'steven.elliott@enron.com'
p44
sg14
g5
sg15
F0.8073727712835046
sg16
F0.2677739122753036
sg17
g5
sg18
g5
sg19
g5
sg20
g5
sg21
I12961
sg22
F0.371009564293305
sg23
F1.6530877317274766
sg24
g5
sg25
I350000
sg26
I6678735
sg27
g5
sg28
g5
sg29
I1788391
sg30
I0
sg31
I170941
sg32
I0
sg33
I211725
sg34
I0
sg35
I4890344
sg36
F0.03170136260833826
sg37
F0.06121620025977093
sg38
F1.8926862675640572
sg39
I0
ssS'CORDES WILLIAM R'
p45
(dp46
g3
I764
sg4
g5
sg6
I0
sg7
F0.6278746080900803
sg8
g5
sg9
I00
sg10
F0.8333333333333334
sg11
g5
sg12
S'bill.cordes@enron.com'
p47
sg14
g5
sg15
I0
sg16
F0.3721253919099197
sg17
g5
sg18
I58
sg19
g5
sg20
I12
sg21
g5
sg22
I0
sg23
I0
sg24
g5
sg25
g5
sg26
I1038185
sg27
I10
sg28
I0
sg29
I386335
sg30
F0.0
sg31
g5
sg32
I0
sg33
g5
sg34
I0
sg35
I651850
sg36
I0
sg37
I0
sg38
I0
sg39
F4.833333333333333
ssS'HANNON KEVIN P'
p48
(dp49
g3
I1045
sg4
g5
sg6
I0
sg7
F0.8665224027607292
sg8
I34039
sg9
I01
sg10
F1.0
sg11
I3117011
sg12
S'kevin.hannon@enron.com'
p50
sg14
I1617011
sg15
F0.8427716310680957
sg16
F0.13347759723927077
sg17
g5
sg18
I1035
sg19
g5
sg20
I32
sg21
I11350
sg22
F0.11791175064603959
sg23
F5.196028848352166
sg24
g5
sg25
I1500000
sg26
I6391065
sg27
I32
sg28
I21
sg29
I853064
sg30
F0.020095693779904306
sg31
I243293
sg32
F5.60135720273519
sg33
I288682
sg34
F5.60135720273519
sg35
I5538001
sg36
F0.045169623529098826
sg37
F0.039316618285864725
sg38
F10.797386051087356
sg39
F32.34375
ssS'MORDAUNT KRISTINA M'
p51
(dp52
g3
g5
sg4
g5
sg6
I0
sg7
I0
sg8
I35018
sg9
I00
sg10
I0
sg11
g5
sg12
S'kristina.mordaunt@enron.com'
p53
sg14
g5
sg15
F0.42495409866321304
sg16
F1.0
sg17
g5
sg18
g5
sg19
g5
sg20
g5
sg21
I1411
sg22
F0.05571483575753912
sg23
F0.5170861163173286
sg24
g5
sg25
I325000
sg26
I208510
sg27
g5
sg28
g5
sg29
I208510
sg30
I0
sg31
I267093
sg32
I0
sg33
I628522
sg34
I0
sg35
g5
sg36
F3.014349431681934
sg37
F0.002244949261919233
sg38
I0
sg39
I0
ssS'MEYER ROCKFORD G'
p54
(dp55
g3
I232
sg4
I1848227
sg6
I0
sg7
F0.5162704668925684
sg8
g5
sg9
I00
sg10
F0.0
sg11
g5
sg12
S'rockford.meyer@enron.com'
p56
sg14
g5
sg15
I0
sg16
F0.4837295331074316
sg17
g5
sg18
I22
sg19
g5
sg20
I28
sg21
g5
sg22
I0
sg23
I0
sg24
g5
sg25
g5
sg26
I955873
sg27
I0
sg28
I0
sg29
I462384
sg30
F0.0
sg31
g5
sg32
I0
sg33
I1848227
sg34
I0
sg35
I493489
sg36
F1.9335487036457772
sg37
I0
sg38
I0
sg39
F0.7857142857142857
ssS'MCMAHON JEFFREY'
p57
(dp58
g3
I2355
sg4
g5
sg6
I0
sg7
F0.6639508556067727
sg8
I137108
sg9
I00
sg10
F1.2083333333333333
sg11
g5
sg12
S'jeffrey.mcmahon@enron.com'
p59
sg14
I694862
sg15
F0.09035821756873738
sg16
F0.3360491443932273
sg17
g5
sg18
I2228
sg19
g5
sg20
I48
sg21
I297353
sg22
F0.033442843514918275
sg23
F0.6341817628350461
sg24
g5
sg25
I2600000
sg26
I1662855
sg27
I58
sg28
I26
sg29
I558801
sg30
F0.011040339702760084
sg31
I370448
sg32
F0.16948800311041762
sg33
I4099771
sg34
F0.16948800311041762
sg35
I1104054
sg36
F2.4655012012472524
sg37
F0.07252917297088057
sg38
I0
sg39
F46.416666666666664
ssS'HORTON STANLEY C'
p60
(dp61
g3
I2350
sg4
I3131860
sg6
I0
sg7
F0.7180407538025821
sg8
g5
sg9
I00
sg10
F0.04100652376514446
sg11
g5
sg12
S'stanley.horton@enron.com'
p62
sg14
g5
sg15
I0
sg16
F0.28195924619741786
sg17
g5
sg18
I1074
sg19
g5
sg20
I1073
sg21
g5
sg22
I0
sg23
I0
sg24
g5
sg25
g5
sg26
I7256648
sg27
I44
sg28
I15
sg29
I2046079
sg30
F0.006382978723404255
sg31
g5
sg32
I0
sg33
I3131860
sg34
I0
sg35
I5210569
sg36
F0.4315849411463805
sg37
I0
sg38
I0
sg39
F1.0009319664492078
ssS'PIPER GREGORY F'
p63
(dp64
g3
I1238
sg4
I1130036
sg6
F0.46524895204989264
sg7
F1.0
sg8
I43057
sg9
I00
sg10
F0.2747747747747748
sg11
I33333
sg12
S'greg.piper@enron.com'
p65
sg14
g5
sg15
F0.11342524785210191
sg16
F0.46524895204989264
sg17
I409554
sg18
I742
sg19
g5
sg20
I222
sg21
I778
sg22
F0.024779167474760146
sg23
F0.23019873632403695
sg24
g5
sg25
I400000
sg26
I880290
sg27
I61
sg28
I48
sg29
I409554
sg30
F0.03877221324717286
sg31
I197091
sg32
I0
sg33
I1737629
sg34
I0
sg35
I880290
sg36
F1.9739279101205285
sg37
F0.00044773654215025184
sg38
F0.019183036194722808
sg39
F3.3423423423423424
ssS'HUMPHREY GENE E'
p66
(dp67
g3
I128
sg4
I2964506
sg6
I0
sg7
F1.0
sg8
I4994
sg9
I00
sg10
F0.5882352941176471
sg11
g5
sg12
S'gene.humphrey@enron.com'
p68
sg14
g5
sg15
F0.04216598542556925
sg16
I0
sg17
g5
sg18
I119
sg19
g5
sg20
I17
sg21
g5
sg22
F0.0016108513449350757
sg23
I0
sg24
g5
sg25
g5
sg26
I2282768
sg27
I10
sg28
I17
sg29
g5
sg30
F0.1328125
sg31
I130724
sg32
I0
sg33
I3100224
sg34
I0
sg35
I2282768
sg36
F1.3580985890813257
sg37
I0
sg38
I0
sg39
F7.0
ssS'UMANOFF ADAM S'
p69
(dp70
g3
I111
sg4
g5
sg6
I0
sg7
I0
sg8
I53122
sg9
I00
sg10
F0.6666666666666666
sg11
g5
sg12
S'adam.umanoff@enron.com'
p71
sg14
g5
sg15
F0.2552843485976075
sg16
I0
sg17
g5
sg18
I41
sg19
g5
sg20
I18
sg21
g5
sg22
F0.04699144862140313
sg23
F0.6977242027809893
sg24
g5
sg25
I788750
sg26
g5
sg27
I12
sg28
I0
sg29
g5
sg30
F0.0
sg31
I288589
sg32
I0
sg33
I1130461
sg34
I0
sg35
g5
sg36
I0
sg37
I0
sg38
I0
sg39
F2.2777777777777777
ssS'BLACHMAN JEREMY M'
p72
(dp73
g3
I2475
sg4
g5
sg6
I0
sg7
F0.8019173178925221
sg8
I84208
sg9
I00
sg10
F1.7857142857142858
sg11
g5
sg12
S'jeremy.blachman@enron.com'
p74
sg14
I831809
sg15
F0.12335799209364538
sg16
F0.19808268210747793
sg17
g5
sg18
I2326
sg19
g5
sg20
I14
sg21
I272
sg22
F0.04179399305650339
sg23
F0.4218707735372872
sg24
g5
sg25
I850000
sg26
I954354
sg27
I25
sg28
I2
sg29
I189041
sg30
F0.0008080808080808081
sg31
I248546
sg32
F0.4128422426650321
sg33
I2014835
sg34
F0.4128422426650321
sg35
I765313
sg36
F2.1112029708053823
sg37
F0.0001349986475319319
sg38
I0
sg39
F166.14285714285714
ssS'SUNDE MARTIN'
p75
(dp76
g3
I2647
sg4
g5
sg6
I0
sg7
I0
sg8
g5
sg9
I00
sg10
F0.9736842105263158
sg11
g5
sg12
S'marty.sunde@enron.com'
p77
sg14
I476451
sg15
F0.16665124115001434
sg16
F1.0
sg17
g5
sg18
I2565
sg19
g5
sg20
I38
sg21
I111122
sg22
I0
sg23
F0.4530571324460749
sg24
g5
sg25
I700000
sg26
I698920
sg27
I37
sg28
I13
sg29
I698920
sg30
F0.004911220249338874
sg31
I257486
sg32
F0.30837074830152117
sg33
I1545059
sg34
F0.30837074830152117
sg35
g5
sg36
F2.2106378412407715
sg37
F0.07192087810238962
sg38
I0
sg39
F67.5
ssS'GIBBS DANA R'
p78
(dp79
g3
I169
sg4
I504610
sg6
I0
sg7
F1.0
sg8
g5
sg9
I00
sg10
F0.0
sg11
g5
sg12
S'dana.gibbs@enron.com'
p80
sg14
I461912
sg15
I0
sg16
I0
sg17
g5
sg18
I23
sg19
g5
sg20
I12
sg21
g5
sg22
I0
sg23
I0
sg24
g5
sg25
g5
sg26
I2218275
sg27
I0
sg28
I0
sg29
g5
sg30
F0.0
sg31
g5
sg32
F0.47791152193121317
sg33
I966522
sg34
F0.47791152193121317
sg35
I2218275
sg36
F0.43570882780538933
sg37
I0
sg38
I0
sg39
F1.9166666666666667
ssS'LOWRY CHARLES P'
p81
(dp82
g3
g5
sg4
g5
sg6
F0.41290686584006125
sg7
F1.0
sg8
g5
sg9
I00
sg10
I0
sg11
g5
sg12
g5
sg14
g5
sg15
I0
sg16
F0.41290686584006125
sg17
I153686
sg18
g5
sg19
g5
sg20
g5
sg21
g5
sg22
I0
sg23
I0
sg24
g5
sg25
g5
sg26
I372205
sg27
g5
sg28
g5
sg29
I153686
sg30
I0
sg31
g5
sg32
I0
sg33
g5
sg34
I0
sg35
I372205
sg36
I0
sg37
I0
sg38
I0
sg39
I0
ssS'COLWELL WESLEY'
p83
(dp84
g3
I1758
sg4
I27610
sg6
I0
sg7
I0
sg8
I16514
sg9
I01
sg10
F6.0
sg11
I144062
sg12
S'wes.colwell@enron.com'
p85
sg14
g5
sg15
F0.19360765031428986
sg16
F1.0
sg17
g5
sg18
I1132
sg19
g5
sg20
I40
sg21
I101740
sg22
F0.011080663256268351
sg23
F0.8051832328643588
sg24
g5
sg25
I1200000
sg26
I698242
sg27
I240
sg28
I11
sg29
I698242
sg30
F0.006257110352673493
sg31
I288542
sg32
I0
sg33
I1490344
sg34
I0
sg35
g5
sg36
F2.1344233088241613
sg37
F0.06826611842634989
sg38
F0.09666358907742105
sg39
F28.3
ssS'MULLER MARK S'
p86
(dp87
g3
I136
sg4
I842924
sg6
I0
sg7
F0.7455422176549636
sg8
g5
sg9
I00
sg10
F0.75
sg11
I719000
sg12
S's..muller@enron.com'
p88
sg14
I1725545
sg15
F0.07859103642331366
sg16
F0.2544577823450363
sg17
g5
sg18
I114
sg19
g5
sg20
I16
sg21
I947
sg22
I0
sg23
F0.3435277804670104
sg24
g5
sg25
I1100000
sg26
I1416848
sg27
I12
sg28
I0
sg29
I360528
sg30
F0.0
sg31
I251654
sg32
F0.5388842217690432
sg33
I3202070
sg34
F0.5388842217690432
sg35
I1056320
sg36
F2.259995426467765
sg37
F0.0002957461891838717
sg38
F0.22454224923252772
sg39
F7.125
ssS'JACKSON CHARLENE R'
p89
(dp90
g3
I258
sg4
g5
sg6
I0
sg7
F0.25500079230021977
sg8
I10181
sg9
I00
sg10
F0.44642857142857145
sg11
g5
sg12
S'charlene.jackson@enron.com'
p91
sg14
g5
sg15
F0.5235334032447104
sg16
F0.7449992076997802
sg17
g5
sg18
I117
sg19
g5
sg20
I56
sg21
I2435
sg22
F0.01847148087536785
sg23
F0.453577273238578
sg24
g5
sg25
I250000
sg26
I725735
sg27
I25
sg28
I19
sg29
I540672
sg30
F0.07364341085271318
sg31
I288558
sg32
I0
sg33
I551174
sg34
I0
sg35
I185063
sg36
F0.759470054496476
sg37
F0.00441784264134375
sg38
I0
sg39
F2.0892857142857144
ssS'WESTFAHL RICHARD K'
p92
(dp93
g3
g5
sg4
g5
sg6
I0
sg7
I0
sg8
I51870
sg9
I00
sg10
I0
sg11
I10800
sg12
S'dick.westfahl@enron.com'
p94
sg14
I256191
sg15
F0.08363872542266133
sg16
F1.0
sg17
g5
sg18
g5
sg19
g5
sg20
g5
sg21
I401130
sg22
F0.06805880847881281
sg23
I0
sg24
g5
sg25
g5
sg26
I384930
sg27
g5
sg28
g5
sg29
I384930
sg30
I0
sg31
I63744
sg32
F0.336149107441595
sg33
I762135
sg34
F0.336149107441595
sg35
g5
sg36
F1.9799314161016288
sg37
F0.5263240764431498
sg38
F0.014170717786218976
sg39
I0
ssS'WALTERS GARETH W'
p95
(dp96
g3
g5
sg4
I53625
sg6
I0
sg7
F1.0
sg8
I33785
sg9
I00
sg10
I0
sg11
g5
sg12
g5
sg14
g5
sg15
I0
sg16
I0
sg17
g5
sg18
g5
sg19
g5
sg20
g5
sg21
g5
sg22
F0.3865118407504862
sg23
I0
sg24
g5
sg25
g5
sg26
I1030329
sg27
g5
sg28
g5
sg29
g5
sg30
I0
sg31
g5
sg32
I0
sg33
I87410
sg34
I0
sg35
I1030329
sg36
F0.08483697925614052
sg37
I0
sg38
I0
sg39
I0
ssS'WALLS JR ROBERT H'
p97
(dp98
g3
I671
sg4
g5
sg6
I0
sg7
F0.7368276335790643
sg8
I50936
sg9
I00
sg10
F0.11643835616438356
sg11
g5
sg12
S'rob.walls@enron.com'
p99
sg14
I540751
sg15
F0.1985184402761872
sg16
F0.2631723664209356
sg17
g5
sg18
I215
sg19
g5
sg20
I146
sg21
I2
sg22
F0.028316970391042817
sg23
F0.47254250102847484
sg24
g5
sg25
I850000
sg26
I5898997
sg27
I17
sg28
I0
sg29
I1552453
sg30
F0.0
sg31
I357091
sg32
F0.30062097643958685
sg33
I1798780
sg34
F0.30062097643958685
sg35
I4346544
sg36
F0.30492980416840354
sg37
F1.1118647083022938e-06
sg38
I0
sg39
F1.4726027397260273
ssS'KITCHEN LOUISE'
p100
(dp101
g3
I8305
sg4
g5
sg6
I0
sg7
F0.14811849918577044
sg8
I5774
sg9
I00
sg10
F0.14525462962962962
sg11
g5
sg12
S'louise.kitchen@enron.com'
p102
sg14
g5
sg15
F0.07819964674439903
sg16
F0.8518815008142295
sg17
g5
sg18
I3669
sg19
g5
sg20
I1728
sg21
I93925
sg22
F0.0016634299787879547
sg23
F0.8930780973748977
sg24
g5
sg25
I3100000
sg26
I547143
sg27
I251
sg28
I194
sg29
I466101
sg30
F0.023359422034918725
sg31
I271442
sg32
I0
sg33
I3471141
sg34
I0
sg35
I81042
sg36
F6.344120275686612
sg37
F0.02705882590191525
sg38
I0
sg39
F2.123263888888889
ssS'CHAN RONNIE'
p103
(dp104
g3
g5
sg4
g5
sg6
I0
sg7
I0
sg8
g5
sg9
I00
sg10
I0
sg11
I98784
sg12
g5
sg14
g5
sg15
I0
sg16
I0
sg17
I32460
sg18
g5
sg19
g5
sg20
g5
sg21
g5
sg22
I0
sg23
I0
sg24
I98784
sg25
g5
sg26
g5
sg27
g5
sg28
g5
sg29
I32460
sg30
I0
sg31
g5
sg32
I0
sg33
g5
sg34
I0
sg35
g5
sg36
I0
sg37
I0
sg38
I0
sg39
I0
ssS'BELFER ROBERT'
p105
(dp106
g3
g5
sg4
I102500
sg6
F1.0
sg7
F0.07450162157258522
sg8
g5
sg9
I00
sg10
I0
sg11
g5
sg12
g5
sg14
g5
sg15
I0
sg16
I0
sg17
I44093
sg18
g5
sg19
g5
sg20
g5
sg21
g5
sg22
I0
sg23
I0
sg24
I3285
sg25
g5
sg26
I44093
sg27
g5
sg28
g5
sg29
g5
sg30
I0
sg31
g5
sg32
I0
sg33
I102500
sg34
I0
sg35
I3285
sg36
F2.3246320277595083
sg37
I0
sg38
I0
sg39
I0
ssS'SHANKMAN JEFFREY A'
p107
(dp108
g3
I3221
sg4
g5
sg6
I0
sg7
F0.6958849633331483
sg8
I178979
sg9
I00
sg10
F0.0350615441999254
sg11
g5
sg12
S'jeffrey.shankman@enron.com'
p109
sg14
I554422
sg15
F0.10007891527369252
sg16
F0.3041150366668517
sg17
g5
sg18
I1730
sg19
g5
sg20
I2681
sg21
I1191
sg22
F0.05889981972565918
sg23
F0.6581757605714545
sg24
g5
sg25
I2000000
sg26
I2072035
sg27
I94
sg28
I83
sg29
I630137
sg30
F0.025768394908413535
sg31
I304110
sg32
F0.18245356076377348
sg33
I3038702
sg34
F0.18245356076377348
sg35
I1441898
sg36
F1.4665302468346335
sg37
F0.0003919436654203012
sg38
I0
sg39
F0.6452816113390526
ssS'WODRASKA JOHN'
p110
(dp111
g3
g5
sg4
g5
sg6
I0
sg7
I0
sg8
g5
sg9
I00
sg10
I0
sg11
g5
sg12
S'john.wodraska@enron.com'
p112
sg14
g5
sg15
I0
sg16
I0
sg17
g5
sg18
g5
sg19
g5
sg20
g5
sg21
I189583
sg22
I0
sg23
I0
sg24
g5
sg25
g5
sg26
g5
sg27
g5
sg28
g5
sg29
g5
sg30
I0
sg31
g5
sg32
I0
sg33
I189583
sg34
I0
sg35
g5
sg36
I0
sg37
F1.0
sg38
I0
sg39
I0
ssS'BERGSIEKER RICHARD P'
p113
(dp114
g3
I383
sg4
g5
sg6
I0
sg7
I0
sg8
I59175
sg9
I00
sg10
F0.06779661016949153
sg11
I485813
sg12
S'rick.bergsieker@enron.com'
p115
sg14
I180250
sg15
F0.3036632463440252
sg16
F1.0
sg17
g5
sg18
I233
sg19
g5
sg20
I59
sg21
I427316
sg22
F0.09562090975195928
sg23
F0.4039751151329078
sg24
g5
sg25
I250000
sg26
I659249
sg27
I4
sg28
I0
sg29
I659249
sg30
F0.0
sg31
I187922
sg32
F0.29126605801082656
sg33
I618850
sg34
F0.29126605801082656
sg35
g5
sg36
F0.9387196643453384
sg37
F0.6905001211925346
sg38
F0.7850254504322534
sg39
F3.9491525423728815
ssS'URQUHART JOHN A'
p116
(dp117
g3
g5
sg4
g5
sg6
I0
sg7
I0
sg8
I228656
sg9
I00
sg10
I0
sg11
I36666
sg12
g5
sg14
g5
sg15
I0
sg16
I0
sg17
g5
sg18
g5
sg19
g5
sg20
g5
sg21
g5
sg22
F1.0
sg23
I0
sg24
I36666
sg25
g5
sg26
g5
sg27
g5
sg28
g5
sg29
g5
sg30
I0
sg31
g5
sg32
I0
sg33
I228656
sg34
I0
sg35
g5
sg36
I0
sg37
I0
sg38
F0.16035441886501994
sg39
I0
ssS'BIBI PHILIPPE A'
p118
(dp119
g3
I1607
sg4
g5
sg6
I0
sg7
F0.7949459165122768
sg8
I38559
sg9
I00
sg10
F0.575
sg11
g5
sg12
S'philippe.bibi@enron.com'
p120
sg14
I369721
sg15
F0.10432981554439774
sg16
F0.20505408348772328
sg17
g5
sg18
I1336
sg19
g5
sg20
I40
sg21
I425688
sg22
F0.018831379087543277
sg23
F0.4883783056496091
sg24
g5
sg25
I1000000
sg26
I1843816
sg27
I23
sg28
I8
sg29
I378082
sg30
F0.004978220286247666
sg31
I213625
sg32
F0.18056371554307912
sg33
I2047593
sg34
F0.18056371554307912
sg35
I1465734
sg36
F1.110519162432694
sg37
F0.2078967841753708
sg38
I0
sg39
F33.4
ssS'RIEKER PAULA H'
p121
(dp122
g3
I1328
sg4
I214678
sg6
I0
sg7
F0.8521804566918219
sg8
I33271
sg9
I01
sg10
F0.4268292682926829
sg11
I100000
sg12
S'paula.rieker@enron.com'
p123
sg14
g5
sg15
F0.22673187153125285
sg16
F0.14781954330817812
sg17
g5
sg18
I1258
sg19
g5
sg20
I82
sg21
I1950
sg22
F0.03027113092530252
sg23
F0.6368847238649804
sg24
g5
sg25
I700000
sg26
I1918887
sg27
I35
sg28
I48
sg29
I283649
sg30
F0.03614457831325301
sg31
I249201
sg32
I0
sg33
I1099100
sg34
I0
sg35
I1635238
sg36
F0.5727799500439578
sg37
F0.0017741788736238742
sg38
F0.09098353198071149
sg39
F15.341463414634147
ssS'WHALEY DAVID A'
p124
(dp125
g3
g5
sg4
g5
sg6
I0
sg7
F1.0
sg8
g5
sg9
I00
sg10
I0
sg11
g5
sg12
g5
sg14
g5
sg15
I0
sg16
I0
sg17
g5
sg18
g5
sg19
g5
sg20
g5
sg21
g5
sg22
I0
sg23
I0
sg24
g5
sg25
g5
sg26
I98718
sg27
g5
sg28
g5
sg29
g5
sg30
I0
sg31
g5
sg32
I0
sg33
g5
sg34
I0
sg35
I98718
sg36
I0
sg37
I0
sg38
I0
sg39
I0
ssS'BECK SALLY W'
p126
(dp127
g3
I7315
sg4
g5
sg6
I0
sg7
I0
sg8
I37172
sg9
I00
sg10
F0.033156804052498275
sg11
g5
sg12
S'sally.beck@enron.com'
p128
sg14
g5
sg15
F0.23871389830228631
sg16
F1.0
sg17
g5
sg18
I2639
sg19
g5
sg20
I4343
sg21
I566
sg22
F0.0383585052854908
sg23
F0.7223435300721931
sg24
g5
sg25
I700000
sg26
I126027
sg27
I144
sg28
I386
sg29
I126027
sg30
F0.052768284347231714
sg31
I231330
sg32
I0
sg33
I969068
sg34
I0
sg35
g5
sg36
F7.689368151269172
sg37
F0.0005840663400298018
sg38
I0
sg39
F0.6076444853787705
ssS'HAUG DAVID L'
p129
(dp130
g3
I573
sg4
g5
sg6
I0
sg7
I0
sg8
I475
sg9
I00
sg10
F0.21052631578947367
sg11
g5
sg12
S'david.haug@enron.com'
p131
sg14
g5
sg15
I0
sg16
F1.0
sg17
g5
sg18
I471
sg19
g5
sg20
I19
sg21
g5
sg22
F1.0
sg23
I0
sg24
g5
sg25
g5
sg26
I2217299
sg27
I4
sg28
I7
sg29
I2217299
sg30
F0.012216404886561954
sg31
g5
sg32
I0
sg33
I475
sg34
I0
sg35
g5
sg36
F0.00021422460389870738
sg37
I0
sg38
I0
sg39
F24.789473684210527
ssS'ECHOLS JOHN B'
p132
(dp133
g3
g5
sg4
g5
sg6
I0
sg7
F0.5961081966140735
sg8
I21530
sg9
I00
sg10
I0
sg11
g5
sg12
S'john.echols@enron.com'
p134
sg14
I2234774
sg15
F0.06769058998842635
sg16
F0.40389180338592645
sg17
g5
sg18
g5
sg19
g5
sg20
g5
sg21
I53775
sg22
F0.007996808705044415
sg23
F0.07428526432925606
sg24
g5
sg25
I200000
sg26
I1008941
sg27
g5
sg28
g5
sg29
I407503
sg30
I0
sg31
I182245
sg32
F0.8300538865307444
sg33
I2692324
sg34
F0.8300538865307444
sg35
I601438
sg36
F2.6684652521802565
sg37
F0.019973450446528724
sg38
I0
sg39
I0
ssS'MENDELSOHN JOHN'
p135
(dp136
g3
g5
sg4
g5
sg6
I0
sg7
I0
sg8
I148
sg9
I00
sg10
I0
sg11
I103750
sg12
g5
sg14
g5
sg15
I0
sg16
I0
sg17
g5
sg18
g5
sg19
g5
sg20
g5
sg21
g5
sg22
F1.0
sg23
I0
sg24
I103750
sg25
g5
sg26
g5
sg27
g5
sg28
g5
sg29
g5
sg30
I0
sg31
g5
sg32
I0
sg33
I148
sg34
I0
sg35
g5
sg36
I0
sg37
I0
sg38
F701.0135135135135
sg39
I0
ssS'HICKERSON GARY J'
p137
(dp138
g3
I1320
sg4
g5
sg6
I0
sg7
I0
sg8
I98849
sg9
I00
sg10
F1.4814814814814814
sg11
g5
sg12
S'gary.hickerson@enron.com'
p139
sg14
I69223
sg15
F0.10173331104488624
sg16
F1.0
sg17
g5
sg18
I900
sg19
g5
sg20
I27
sg21
I1936
sg22
F0.04748255832944246
sg23
F0.8166025873812804
sg24
g5
sg25
I1700000
sg26
I441096
sg27
I40
sg28
I1
sg29
I441096
sg30
F0.0007575757575757576
sg31
I211788
sg32
F0.03325157700370257
sg33
I2081796
sg34
F0.03325157700370257
sg35
g5
sg36
F4.719598454758148
sg37
F0.0009299662406883287
sg38
I0
sg39
F33.333333333333336
ssS'CLINE KENNETH W'
p140
(dp141
g3
g5
sg4
g5
sg6
F2.4935256809379585
sg7
I0
sg8
g5
sg9
I00
sg10
I0
sg11
g5
sg12
g5
sg14
g5
sg15
I0
sg16
F3.4935256809379585
sg17
I472568
sg18
g5
sg19
g5
sg20
g5
sg21
g5
sg22
I0
sg23
I0
sg24
g5
sg25
g5
sg26
I189518
sg27
g5
sg28
g5
sg29
I662086
sg30
I0
sg31
g5
sg32
I0
sg33
g5
sg34
I0
sg35
g5
sg36
I0
sg37
I0
sg38
I0
sg39
I0
ssS'LEWIS RICHARD'
p142
(dp143
g3
I952
sg4
g5
sg6
I0
sg7
F1.0
sg8
g5
sg9
I00
sg10
F0.38461538461538464
sg11
g5
sg12
S'richard.lewis@enron.com'
p144
sg14
g5
sg15
I0
sg16
I0
sg17
g5
sg18
I739
sg19
g5
sg20
I26
sg21
g5
sg22
I0
sg23
I0
sg24
g5
sg25
g5
sg26
I850477
sg27
I10
sg28
I0
sg29
g5
sg30
F0.0
sg31
g5
sg32
I0
sg33
g5
sg34
I0
sg35
I850477
sg36
I0
sg37
I0
sg38
I0
sg39
F28.423076923076923
ssS'HAYES ROBERT E'
p145
(dp146
g3
I504
sg4
I7961
sg6
I0
sg7
I0
sg8
g5
sg9
I00
sg10
F1.3333333333333333
sg11
g5
sg12
S'robert.hayes@enron.com'
p147
sg14
g5
sg15
I0
sg16
F1.0
sg17
g5
sg18
I50
sg19
g5
sg20
I12
sg21
g5
sg22
I0
sg23
I0
sg24
g5
sg25
g5
sg26
I151418
sg27
I16
sg28
I0
sg29
I151418
sg30
F0.0
sg31
g5
sg32
I0
sg33
I7961
sg34
I0
sg35
g5
sg36
F0.05257631193121029
sg37
I0
sg38
I0
sg39
F4.166666666666667
ssS'MCCARTY DANNY J'
p148
(dp149
g3
I1433
sg4
g5
sg6
I0
sg7
F0.8754089633971995
sg8
g5
sg9
I00
sg10
F0.11627906976744186
sg11
g5
sg12
S'danny.mccarty@enron.com'
p150
sg14
g5
sg15
I0
sg16
F0.12459103660280052
sg17
g5
sg18
I508
sg19
g5
sg20
I215
sg21
g5
sg22
I0
sg23
I0
sg24
g5
sg25
g5
sg26
I758931
sg27
I25
sg28
I2
sg29
I94556
sg30
F0.0013956734124214933
sg31
g5
sg32
I0
sg33
g5
sg34
I0
sg35
I664375
sg36
I0
sg37
I0
sg38
I0
sg39
F2.3627906976744186
ssS'KOPPER MICHAEL J'
p151
(dp152
g3
g5
sg4
g5
sg6
I0
sg7
I0
sg8
I118134
sg9
I01
sg10
I0
sg11
g5
sg12
S'michael.kopper@enron.com'
p153
sg14
I602671
sg15
F0.08456004873686766
sg16
F1.0
sg17
g5
sg18
g5
sg19
g5
sg20
g5
sg21
I907502
sg22
F0.04453497156764728
sg23
F0.30158952760524343
sg24
g5
sg25
I800000
sg26
I985032
sg27
g5
sg28
g5
sg29
I985032
sg30
I0
sg31
I224305
sg32
F0.22719907773922457
sg33
I2652612
sg34
F0.22719907773922457
sg35
g5
sg36
F2.6929196208854127
sg37
F0.34211637435101705
sg38
I0
sg39
I0
ssS'LEFF DANIEL P'
p154
(dp155
g3
I2822
sg4
g5
sg6
I0
sg7
I0
sg8
g5
sg9
I00
sg10
F1.0634920634920635
sg11
g5
sg12
S'dan.leff@enron.com'
p156
sg14
I1387399
sg15
F0.10274871369867744
sg16
F1.0
sg17
g5
sg18
I2672
sg19
g5
sg20
I63
sg21
I3083
sg22
I0
sg23
F0.3753432514034084
sg24
g5
sg25
I1000000
sg26
I360528
sg27
I67
sg28
I14
sg29
I360528
sg30
F0.004961020552799433
sg31
I273746
sg32
F0.5207508516538374
sg33
I2664228
sg34
F0.5207508516538374
sg35
g5
sg36
F7.3897949673811745
sg37
F0.001157183244076708
sg38
I0
sg39
F42.41269841269841
ssS'LAVORATO JOHN J'
p157
(dp158
g3
I7259
sg4
g5
sg6
I0
sg7
F0.80489241252034
sg8
I49537
sg9
I00
sg10
F0.20425531914893616
sg11
g5
sg12
S'john.lavorato@enron.com'
p159
sg14
I2035380
sg15
F0.03254324841831629
sg16
F0.19510758747965995
sg17
g5
sg18
I3962
sg19
g5
sg20
I2585
sg21
I1552
sg22
F0.004751405581388478
sg23
F0.767330372269371
sg24
g5
sg25
I8000000
sg26
I5167144
sg27
I528
sg28
I411
sg29
I1008149
sg30
F0.05661936905909905
sg31
I339288
sg32
F0.19522611163870404
sg33
I10425757
sg34
F0.19522611163870404
sg35
I4158995
sg36
F2.0177020419790894
sg37
F0.00014886209222025797
sg38
I0
sg39
F1.532688588007737
ssS'BERBERIAN DAVID'
p160
(dp161
g3
g5
sg4
g5
sg6
I0
sg7
F0.6514218708895034
sg8
I11892
sg9
I00
sg10
I0
sg11
g5
sg12
S'david.berberian@enron.com'
p162
sg14
g5
sg15
F0.9479503138212663
sg16
F0.34857812911049657
sg17
g5
sg18
g5
sg19
g5
sg20
g5
sg21
g5
sg22
F0.052049686178733685
sg23
I0
sg24
g5
sg25
g5
sg26
I2493616
sg27
g5
sg28
g5
sg29
I869220
sg30
I0
sg31
I216582
sg32
I0
sg33
I228474
sg34
I0
sg35
I1624396
sg36
F0.09162356994821977
sg37
I0
sg38
I0
sg39
I0
ssS'DETMERING TIMOTHY J'
p163
(dp164
g3
g5
sg4
I875307
sg6
F0.15536931699102258
sg7
F1.0
sg8
I52255
sg9
I00
sg10
I0
sg11
I775241
sg12
S'timothy.detmering@enron.com'
p165
sg14
I415657
sg15
F0.17474927007935526
sg16
F0.15536931699102258
sg17
I315068
sg18
g5
sg19
g5
sg20
g5
sg21
I1105
sg22
F0.0433801572826447
sg23
F0.3528191913716199
sg24
g5
sg25
I425000
sg26
I2027865
sg27
g5
sg28
g5
sg29
I315068
sg30
I0
sg31
I210500
sg32
F0.34506298030106686
sg33
I1204583
sg34
F0.34506298030106686
sg35
I2027865
sg36
F0.5940153807082819
sg37
F0.0009173298975662117
sg38
F0.643576241736767
sg39
I0
ssS'WAKEHAM JOHN'
p166
(dp167
g3
g5
sg4
g5
sg6
I0
sg7
I0
sg8
I103773
sg9
I00
sg10
I0
sg11
g5
sg12
g5
sg14
g5
sg15
I0
sg16
I0
sg17
g5
sg18
g5
sg19
g5
sg20
g5
sg21
g5
sg22
F0.4870348381525407
sg23
I0
sg24
I109298
sg25
g5
sg26
g5
sg27
g5
sg28
g5
sg29
g5
sg30
I0
sg31
g5
sg32
I0
sg33
I213071
sg34
I0
sg35
g5
sg36
I0
sg37
I0
sg38
I0
sg39
I0
ssS'POWERS WILLIAM'
p168
(dp169
g3
I653
sg4
g5
sg6
I0
sg7
I0
sg8
g5
sg9
I00
sg10
F0.0
sg11
I17500
sg12
S'ken.powers@enron.com'
p170
sg14
g5
sg15
I0
sg16
I0
sg17
g5
sg18
I12
sg19
g5
sg20
I26
sg21
g5
sg22
I0
sg23
I0
sg24
I17500
sg25
g5
sg26
g5
sg27
I0
sg28
I0
sg29
g5
sg30
F0.0
sg31
g5
sg32
I0
sg33
g5
sg34
I0
sg35
g5
sg36
I0
sg37
I0
sg38
I0
sg39
F0.46153846153846156
ssS'GOLD JOSEPH'
p171
(dp172
g3
g5
sg4
g5
sg6
I0
sg7
F0.4973900737342627
sg8
g5
sg9
I00
sg10
I0
sg11
g5
sg12
S'joe.gold@enron.com'
p173
sg14
I304805
sg15
F0.12709987503336093
sg16
F0.5026099262657373
sg17
g5
sg18
g5
sg19
g5
sg20
g5
sg21
I819288
sg22
I0
sg23
F0.34932903208377564
sg24
g5
sg25
I750000
sg26
I877611
sg27
g5
sg28
g5
sg29
I441096
sg30
I0
sg31
I272880
sg32
F0.1419696474990603
sg33
I2146973
sg34
F0.1419696474990603
sg35
I436515
sg36
F2.446383420444821
sg37
F0.38160144538380314
sg38
I0
sg39
I0
ssS'BANNANTINE JAMES M'
p174
(dp175
g3
I566
sg4
g5
sg6
F0.10684149688937915
sg7
F0.7716538631639595
sg8
I56301
sg9
I00
sg10
F1.3448275862068966
sg11
I5104
sg12
S'james.bannantine@enron.com'
p176
sg14
g5
sg15
F0.0005206303884426602
sg16
F0.33518763372541976
sg17
I560222
sg18
I465
sg19
g5
sg20
I29
sg21
I864523
sg22
F0.0614507578610277
sg23
I0
sg24
g5
sg25
g5
sg26
I5243487
sg27
I39
sg28
I0
sg29
I1757552
sg30
F0.0
sg31
I477
sg32
I0
sg33
I916197
sg34
I0
sg35
I4046157
sg36
F0.17473047992681207
sg37
F0.943599466053698
sg38
F0.005570854303168424
sg39
F16.03448275862069
ssS'DUNCAN JOHN H'
p177
(dp178
g3
g5
sg4
g5
sg6
I0
sg7
F1.0
sg8
g5
sg9
I00
sg10
I0
sg11
I25000
sg12
g5
sg14
g5
sg15
I0
sg16
I0
sg17
g5
sg18
g5
sg19
g5
sg20
g5
sg21
g5
sg22
I0
sg23
I0
sg24
I102492
sg25
g5
sg26
I371750
sg27
g5
sg28
g5
sg29
g5
sg30
I0
sg31
g5
sg32
I0
sg33
I77492
sg34
I0
sg35
I371750
sg36
F0.20845191661062543
sg37
I0
sg38
F0.3226139472461673
sg39
I0
ssS'SHAPIRO RICHARD S'
p179
(dp180
g3
I15149
sg4
g5
sg6
I0
sg7
F0.6158423345062467
sg8
I137767
sg9
I00
sg10
F0.060905349794238686
sg11
g5
sg12
S'richard.shapiro@enron.com'
p181
sg14
g5
sg15
F0.25443384130082036
sg16
F0.3841576654937533
sg17
g5
sg18
I4527
sg19
g5
sg20
I1215
sg21
I705
sg22
F0.1302702099573731
sg23
F0.6146293123338137
sg24
g5
sg25
I650000
sg26
I987001
sg27
I74
sg28
I65
sg29
I379164
sg30
F0.004290712258234867
sg31
I269076
sg32
I0
sg33
I1057548
sg34
I0
sg35
I607837
sg36
F1.0714761180586443
sg37
F0.0006666364079928287
sg38
I0
sg39
F3.725925925925926
ssS'SHERRIFF JOHN R'
p182
(dp183
g3
I3187
sg4
g5
sg6
I0
sg7
F0.5866310512492562
sg8
g5
sg9
I00
sg10
F0.30434782608695654
sg11
g5
sg12
S'john.sherriff@enron.com'
p184
sg14
I554422
sg15
F0.09890233584629565
sg16
F0.41336894875074387
sg17
g5
sg18
I2103
sg19
g5
sg20
I92
sg21
I1852186
sg22
I0
sg23
F0.34598979376240374
sg24
g5
sg25
I1500000
sg26
I3128982
sg27
I28
sg28
I23
sg29
I1293424
sg30
F0.0072168183244430495
sg31
I428780
sg32
F0.1278829022915596
sg33
I4335388
sg34
F0.1278829022915596
sg35
I1835558
sg36
F1.3855586257766903
sg37
F0.42722496809974103
sg38
I0
sg39
F22.858695652173914
ssS'SHELBY REX'
p185
(dp186
g3
I225
sg4
g5
sg6
I0
sg7
F0.6514218708895034
sg8
I22884
sg9
I01
sg10
F0.3333333333333333
sg11
I4167
sg12
S'rex.shelby@enron.com'
p187
sg14
g5
sg15
F0.10571664541627888
sg16
F0.34857812911049657
sg17
g5
sg18
I91
sg19
g5
sg20
I39
sg21
I1573324
sg22
F0.011419817005466881
sg23
F0.09980612659908128
sg24
g5
sg25
I200000
sg26
I2493616
sg27
I13
sg28
I14
sg29
I869220
sg30
F0.06222222222222222
sg31
I211844
sg32
I0
sg33
I2003885
sg34
I0
sg35
I1624396
sg36
F0.8036060885076131
sg37
F0.7851368716268649
sg38
F0.0020794606476918585
sg39
F2.3333333333333335
ssS'LEMAISTRE CHARLES'
p188
(dp189
g3
g5
sg4
g5
sg6
I0
sg7
F1.0
sg8
g5
sg9
I00
sg10
I0
sg11
I25000
sg12
g5
sg14
g5
sg15
I0
sg16
I0
sg17
g5
sg18
g5
sg19
g5
sg20
g5
sg21
g5
sg22
I0
sg23
I0
sg24
I112492
sg25
g5
sg26
I412878
sg27
g5
sg28
g5
sg29
g5
sg30
I0
sg31
g5
sg32
I0
sg33
I87492
sg34
I0
sg35
I412878
sg36
F0.2119076337319983
sg37
I0
sg38
F0.28574041055182187
sg39
I0
ssS'DEFFNER JOSEPH M'
p190
(dp191
g3
I714
sg4
g5
sg6
I0
sg7
F0.10915074963413332
sg8
I41626
sg9
I00
sg10
F1.554054054054054
sg11
g5
sg12
S'joseph.deffner@enron.com'
p192
sg14
I335349
sg15
F0.17053834487928257
sg16
F0.8908492503658667
sg17
g5
sg18
I552
sg19
g5
sg20
I74
sg21
I25553
sg22
F0.034440106267410966
sg23
F0.49642203815996205
sg24
g5
sg25
I600000
sg26
I159211
sg27
I115
sg28
I4
sg29
I141833
sg30
F0.0056022408963585435
sg31
I206121
sg32
F0.2774577234581752
sg33
I1208649
sg34
F0.2774577234581752
sg35
I17378
sg36
F7.5914917939087125
sg37
F0.021141787235169185
sg38
I0
sg39
F7.45945945945946
ssS'KISHKILL JOSEPH G'
p193
(dp194
g3
g5
sg4
g5
sg6
I0
sg7
I0
sg8
I116335
sg9
I00
sg10
I0
sg11
I51042
sg12
S'joe.kishkill@enron.com'
p195
sg14
g5
sg15
F0.2471939122934447
sg16
F1.0
sg17
g5
sg18
g5
sg19
g5
sg20
g5
sg21
I465357
sg22
F0.16503853050662792
sg23
I0
sg24
g5
sg25
g5
sg26
I1034346
sg27
g5
sg28
g5
sg29
I1034346
sg30
I0
sg31
I174246
sg32
I0
sg33
I704896
sg34
I0
sg35
g5
sg36
F0.681489559586444
sg37
F0.660178239059379
sg38
F0.07241068185945161
sg39
I0
ssS'WHALLEY LAWRENCE G'
p196
(dp197
g3
I6019
sg4
g5
sg6
I0
sg7
F0.5400371796194098
sg8
I57838
sg9
I00
sg10
F0.3345323741007194
sg11
g5
sg12
S'greg.whalley@enron.com'
p198
sg14
I808346
sg15
F0.10910869608904103
sg16
F0.4599628203805902
sg17
g5
sg18
I3920
sg19
g5
sg20
I556
sg21
I301026
sg22
F0.012364956706190004
sg23
F0.6413581057189047
sg24
g5
sg25
I3000000
sg26
I6079137
sg27
I186
sg28
I24
sg29
I2796177
sg30
F0.003987373317826882
sg31
I510364
sg32
F0.17281308644181792
sg33
I4677574
sg34
F0.17281308644181792
sg35
I3282960
sg36
F0.7694470448683752
sg37
F0.06435515504404633
sg38
I0
sg39
F7.0503597122302155
ssS'MCCONNELL MICHAEL S'
p199
(dp200
g3
I3329
sg4
g5
sg6
I0
sg7
F0.5233356947246603
sg8
I81364
sg9
I00
sg10
F0.03355215171407731
sg11
g5
sg12
S'mike.mcconnell@enron.com'
p201
sg14
I554422
sg15
F0.17371478715729402
sg16
F0.47666430527533965
sg17
g5
sg18
I2189
sg19
g5
sg20
I2742
sg21
I540
sg22
F0.038719612594486245
sg23
F0.5234695178940917
sg24
g5
sg25
I1100000
sg26
I3101279
sg27
I92
sg28
I194
sg29
I1478269
sg30
F0.058275758486031844
sg31
I365038
sg32
F0.26383910640898006
sg33
I2101364
sg34
F0.26383910640898006
sg35
I1623010
sg36
F0.6775797985282846
sg37
F0.00025697594514800863
sg38
I0
sg39
F0.7983223924142961
ssS'PIRO JIM'
p202
(dp203
g3
I58
sg4
g5
sg6
I0
sg7
I0
sg8
g5
sg9
I00
sg10
F0.0
sg11
g5
sg12
S'jim.piro@enron.com'
p204
sg14
g5
sg15
I0
sg16
F1.0
sg17
g5
sg18
I3
sg19
g5
sg20
I16
sg21
g5
sg22
I0
sg23
I0
sg24
g5
sg25
g5
sg26
I47304
sg27
I0
sg28
I1
sg29
I47304
sg30
F0.017241379310344827
sg31
g5
sg32
I0
sg33
g5
sg34
I0
sg35
g5
sg36
I0
sg37
I0
sg38
I0
sg39
F0.1875
ssS'DELAINEY DAVID W'
p205
(dp206
g3
I3093
sg4
g5
sg6
I0
sg7
F0.6339091172441614
sg8
I86174
sg9
I01
sg10
F0.021505376344086023
sg11
g5
sg12
S'david.delainey@enron.com'
p207
sg14
I1294981
sg15
F0.07690914386942319
sg16
F0.3660908827558386
sg17
g5
sg18
I2097
sg19
g5
sg20
I3069
sg21
I1661
sg22
F0.018149616921220586
sg23
F0.6318477819720769
sg24
g5
sg25
I3000000
sg26
I3614261
sg27
I66
sg28
I609
sg29
I1323148
sg30
F0.19689621726479145
sg31
I365163
sg32
F0.27274362418199405
sg33
I4747979
sg34
F0.27274362418199405
sg35
I2291113
sg36
F1.3136790619161152
sg37
F0.0003498330552852066
sg38
I0
sg39
F0.6832844574780058
ssS'SULLIVAN-SHAKLOVITZ COLLEEN'
p208
(dp209
g3
g5
sg4
I181993
sg6
I0
sg7
F1.0
sg8
g5
sg9
I00
sg10
I0
sg11
g5
sg12
g5
sg14
I554422
sg15
F0.162883897229816
sg16
I0
sg17
g5
sg18
g5
sg19
g5
sg20
g5
sg21
I162
sg22
I0
sg23
F0.10006444150032621
sg24
g5
sg25
I100000
sg26
I1362375
sg27
g5
sg28
g5
sg29
g5
sg30
I0
sg31
I162779
sg32
F0.5547792778549386
sg33
I999356
sg34
F0.5547792778549386
sg35
I1362375
sg36
F0.7335395907881457
sg37
F0.00016210439523052847
sg38
I0
sg39
I0
ssS'WROBEL BRUCE'
p210
(dp211
g3
g5
sg4
g5
sg6
I0
sg7
F1.0
sg8
g5
sg9
I00
sg10
I0
sg11
g5
sg12
g5
sg14
g5
sg15
I0
sg16
I0
sg17
g5
sg18
g5
sg19
g5
sg20
g5
sg21
g5
sg22
I0
sg23
I0
sg24
g5
sg25
g5
sg26
I139130
sg27
g5
sg28
g5
sg29
g5
sg30
I0
sg31
g5
sg32
I0
sg33
g5
sg34
I0
sg35
I139130
sg36
I0
sg37
I0
sg38
I0
sg39
I0
ssS'LINDHOLM TOD A'
p212
(dp213
g3
g5
sg4
I204075
sg6
I0
sg7
F0.8319804008083003
sg8
I57727
sg9
I00
sg10
I0
sg11
g5
sg12
S'tod.lindholm@enron.com'
p214
sg14
I175000
sg15
F0.2699622897421934
sg16
F0.1680195991916998
sg17
g5
sg18
g5
sg19
g5
sg20
g5
sg21
I2630
sg22
F0.06590675302464125
sg23
F0.22833943570475254
sg24
g5
sg25
I200000
sg26
I3064208
sg27
g5
sg28
g5
sg29
I514847
sg30
I0
sg31
I236457
sg32
F0.19979700624165847
sg33
I875889
sg34
F0.19979700624165847
sg35
I2549361
sg36
F0.28584515150407547
sg37
F0.003002663579517496
sg38
I0
sg39
I0
ssS'MEYER JEROME J'
p215
(dp216
g3
g5
sg4
g5
sg6
I0
sg7
I0
sg8
I2151
sg9
I00
sg10
I0
sg11
I38346
sg12
g5
sg14
g5
sg15
I0
sg16
I0
sg17
g5
sg18
g5
sg19
g5
sg20
g5
sg21
g5
sg22
F1.0
sg23
I0
sg24
I38346
sg25
g5
sg26
g5
sg27
g5
sg28
g5
sg29
g5
sg30
I0
sg31
g5
sg32
I0
sg33
I2151
sg34
I0
sg35
g5
sg36
I0
sg37
I0
sg38
F17.82705718270572
sg39
I0
ssS'LAY KENNETH L'
p217
(dp218
g3
I4273
sg4
I202911
sg6
I0
sg7
F0.6994161972212709
sg8
I99832
sg9
I01
sg10
F3.4166666666666665
sg11
I300000
sg12
S'kenneth.lay@enron.com'
p219
sg14
I3600000
sg15
F0.010354607410233042
sg16
F0.30058380277872904
sg17
g5
sg18
I2411
sg19
I81525000
sg20
I36
sg21
I10359729
sg22
F0.0009640034718879749
sg23
F0.06759380061719514
sg24
g5
sg25
I7000000
sg26
I49110078
sg27
I123
sg28
I16
sg29
I14761694
sg30
F0.003744441844137608
sg31
I1072321
sg32
F0.03476252603170035
sg33
I103559793
sg34
F0.03476252603170035
sg35
I34348384
sg36
F2.108727927493823
sg37
F0.10003620806773919
sg38
F0.002896877169308363
sg39
F66.97222222222223
ssS'BUTTS ROBERT H'
p220
(dp221
g3
g5
sg4
g5
sg6
I0
sg7
I0
sg8
I9410
sg9
I00
sg10
I0
sg11
I75000
sg12
S'bob.butts@enron.com'
p222
sg14
I175000
sg15
F0.20566192349372672
sg16
F1.0
sg17
g5
sg18
g5
sg19
g5
sg20
g5
sg21
I150656
sg22
F0.007400230578916657
sg23
F0.5898164648445794
sg24
g5
sg25
I750000
sg26
I417619
sg27
g5
sg28
g5
sg29
I417619
sg30
I0
sg31
I261516
sg32
F0.13762384179706855
sg33
I1271582
sg34
F0.13762384179706855
sg35
g5
sg36
F3.0448375193657378
sg37
F0.11847918577016661
sg38
F0.058981646484457945
sg39
I0
ssS'OLSON CINDY K'
p223
(dp224
g3
I1184
sg4
I77716
sg6
I0
sg7
F0.6279949500587511
sg8
I63791
sg9
I00
sg10
F0.38461538461538464
sg11
g5
sg12
S'cindy.olson@enron.com'
p225
sg14
I100000
sg15
F0.2490077991339004
sg16
F0.372005049941249
sg17
g5
sg18
I856
sg19
g5
sg20
I52
sg21
I972
sg22
F0.04826957898902582
sg23
F0.5675124114964394
sg24
g5
sg25
I750000
sg26
I2606763
sg27
I20
sg28
I15
sg29
I969729
sg30
F0.01266891891891892
sg31
I329078
sg32
F0.07566832153285859
sg33
I1321557
sg34
F0.07566832153285859
sg35
I1637034
sg36
F0.5069724405325685
sg37
F0.0007354960852993855
sg38
I0
sg39
F16.46153846153846
ssS'MCDONALD REBECCA'
p226
(dp227
g3
I894
sg4
g5
sg6
I0
sg7
F0.4477451953036776
sg8
g5
sg9
I00
sg10
F4.153846153846154
sg11
g5
sg12
S'rebecca.mcdonald@enron.com'
p228
sg14
g5
sg15
I0
sg16
F0.5522548046963224
sg17
g5
sg18
I720
sg19
g5
sg20
I13
sg21
g5
sg22
I0
sg23
I0
sg24
g5
sg25
g5
sg26
I1691366
sg27
I54
sg28
I1
sg29
I934065
sg30
F0.0011185682326621924
sg31
g5
sg32
I0
sg33
g5
sg34
I0
sg35
I757301
sg36
I0
sg37
I0
sg38
I0
sg39
F55.38461538461539
ssS'CUMBERLAND MICHAEL S'
p229
(dp230
g3
g5
sg4
g5
sg6
I0
sg7
I0
sg8
I22344
sg9
I00
sg10
I0
sg11
g5
sg12
g5
sg14
I275000
sg15
F0.2288478580516761
sg16
F1.0
sg17
g5
sg18
g5
sg19
g5
sg20
g5
sg21
I713
sg22
F0.02765497131031888
sg23
F0.4022496274549604
sg24
g5
sg25
I325000
sg26
I207940
sg27
g5
sg28
g5
sg29
I207940
sg30
I0
sg31
I184899
sg32
F0.3403650693849665
sg33
I807956
sg34
F0.3403650693849665
sg35
g5
sg36
F3.8855246705780515
sg37
F0.0008824737980781132
sg38
I0
sg39
I0
ssS'GAHN ROBERT S'
p231
(dp232
g3
g5
sg4
I73122
sg6
I0
sg7
F0.2612528914932817
sg8
I50080
sg9
I00
sg10
I0
sg11
I1042
sg12
g5
sg14
g5
sg15
F0.21320363985631563
sg16
F0.7387471085067183
sg17
g5
sg18
g5
sg19
g5
sg20
g5
sg21
I76547
sg22
F0.055608299050061906
sg23
F0.5661542219779365
sg24
g5
sg25
I509870
sg26
I318607
sg27
g5
sg28
g5
sg29
I235370
sg30
I0
sg31
I192008
sg32
I0
sg33
I900585
sg34
I0
sg35
I83237
sg36
F2.8266328109551893
sg37
F0.08499697418899937
sg38
F0.0011570257110655852
sg39
I0
ssS'MCCLELLAN GEORGE'
p233
(dp234
g3
I1744
sg4
g5
sg6
I0
sg7
F0.534640627686971
sg8
I228763
sg9
I00
sg10
F1.0612244897959184
sg11
I125000
sg12
S'george.mcclellan@enron.com'
p235
sg14
g5
sg15
F0.1997424859508494
sg16
F0.46535937231302904
sg17
g5
sg18
I1469
sg19
g5
sg20
I49
sg21
I51587
sg22
F0.17346786344475845
sg23
F0.6824577274309334
sg24
g5
sg25
I900000
sg26
I947861
sg27
I52
sg28
I0
sg29
I441096
sg30
F0.0
sg31
I263413
sg32
I0
sg33
I1318763
sg34
I0
sg35
I506765
sg36
F1.391304210216477
sg37
F0.03911771864997729
sg38
F0.09478579547651853
sg39
F29.979591836734695
ssS'HERMANN ROBERT J'
p236
(dp237
g3
g5
sg4
g5
sg6
I0
sg7
F0.2806331682960852
sg8
I48357
sg9
I00
sg10
I0
sg11
I280000
sg12
S'robert.hermann@enron.com'
p238
sg14
I150000
sg15
F0.20244384995001777
sg16
F0.7193668317039148
sg17
g5
sg18
g5
sg19
g5
sg20
g5
sg21
I416441
sg22
F0.0372704844307459
sg23
F0.5395152532523135
sg24
g5
sg25
I700000
sg26
I668132
sg27
g5
sg28
g5
sg29
I480632
sg30
I0
sg31
I262663
sg32
F0.11561041141121005
sg33
I1297461
sg34
F0.11561041141121005
sg35
I187500
sg36
F1.9419231529099041
sg37
F0.32096610225663813
sg38
F0.21580610130092542
sg39
I0
ssS'SCRIMSHAW MATTHEW'
p239
(dp240
g3
g5
sg4
g5
sg6
I0
sg7
F1.0
sg8
g5
sg9
I00
sg10
I0
sg11
g5
sg12
S'matthew.scrimshaw@enron.com'
p241
sg14
g5
sg15
I0
sg16
I0
sg17
g5
sg18
g5
sg19
g5
sg20
g5
sg21
g5
sg22
I0
sg23
I0
sg24
g5
sg25
g5
sg26
I759557
sg27
g5
sg28
g5
sg29
g5
sg30
I0
sg31
g5
sg32
I0
sg33
g5
sg34
I0
sg35
I759557
sg36
I0
sg37
I0
sg38
I0
sg39
I0
ssS'GATHMANN WILLIAM D'
p242
(dp243
g3
g5
sg4
g5
sg6
F0.03722652876588395
sg7
F0.9015123164864087
sg8
g5
sg9
I00
sg10
I0
sg11
g5
sg12
g5
sg14
g5
sg15
I0
sg16
F0.13571421227947528
sg17
I72419
sg18
g5
sg19
g5
sg20
g5
sg21
g5
sg22
I0
sg23
I0
sg24
g5
sg25
g5
sg26
I1945360
sg27
g5
sg28
g5
sg29
I264013
sg30
I0
sg31
g5
sg32
I0
sg33
g5
sg34
I0
sg35
I1753766
sg36
I0
sg37
I0
sg38
I0
sg39
I0
ssS'HAEDICKE MARK E'
p244
(dp245
g3
I4009
sg4
I2157527
sg6
F0.41069289522770686
sg7
F0.7580059121348186
sg8
I76169
sg9
I00
sg10
F0.09273570324574962
sg11
I934484
sg12
S'mark.haedicke@enron.com'
p246
sg14
I983346
sg15
F0.09694705841959127
sg16
F0.6526869830928883
sg17
I329825
sg18
I1847
sg19
g5
sg20
I1941
sg21
I52382
sg22
F0.019737682573369456
sg23
F0.29799964499172726
sg24
g5
sg25
I1150000
sg26
I803094
sg27
I180
sg28
I61
sg29
I524169
sg30
F0.015215764529807932
sg31
I374125
sg32
F0.25481457296003046
sg33
I3859065
sg34
F0.25481457296003046
sg35
I608750
sg36
F4.805246957392285
sg37
F0.013573754264310137
sg38
F0.2421529567395211
sg39
F0.9515713549716641
ssS'BOWEN JR RAYMOND M'
p247
(dp248
g3
I1858
sg4
g5
sg6
I0
sg7
I0
sg8
I65907
sg9
I01
sg10
F5.185185185185185
sg11
I833
sg12
S'raymond.bowen@enron.com'
p249
sg14
I974293
sg15
F0.10436100837994162
sg16
F1.0
sg17
g5
sg18
I1593
sg19
g5
sg20
I27
sg21
I1621
sg22
F0.024688069961331126
sg23
F0.5056958205926081
sg24
g5
sg25
I1350000
sg26
I252055
sg27
I140
sg28
I15
sg29
I252055
sg30
F0.008073196986006458
sg31
I278601
sg32
F0.36495992454269177
sg33
I2669589
sg34
F0.36495992454269177
sg35
g5
sg36
F10.59129555057428
sg37
F0.000607209574207865
sg38
F0.00031203305078047593
sg39
F59.0
ssS'GILLIS JOHN'
p250
(dp251
g3
g5
sg4
g5
sg6
I0
sg7
F0.11446620193598861
sg8
g5
sg9
I00
sg10
I0
sg11
g5
sg12
g5
sg14
g5
sg15
I0
sg16
F0.8855337980640114
sg17
g5
sg18
g5
sg19
g5
sg20
g5
sg21
g5
sg22
I0
sg23
I0
sg24
g5
sg25
g5
sg26
I85641
sg27
g5
sg28
g5
sg29
I75838
sg30
I0
sg31
g5
sg32
I0
sg33
g5
sg34
I0
sg35
I9803
sg36
I0
sg37
I0
sg38
I0
sg39
I0
ssS'FITZGERALD JAY L'
p252
(dp253
g3
I936
sg4
g5
sg6
I0
sg7
F0.40984841195236227
sg8
I23870
sg9
I00
sg10
F0.0625
sg11
g5
sg12
S'jay.fitzgerald@enron.com'
p254
sg14
I556416
sg15
F0.14076122180545456
sg16
F0.5901515880476377
sg17
g5
sg18
I723
sg19
g5
sg20
I16
sg21
I285414
sg22
F0.01687096293123616
sg23
F0.24737482303865338
sg24
g5
sg25
I350000
sg26
I1621236
sg27
I1
sg28
I8
sg29
I956775
sg30
F0.008547008547008548
sg31
I199157
sg32
F0.3932665986739296
sg33
I1414857
sg34
F0.3932665986739296
sg35
I664461
sg36
F0.8727026786969941
sg37
F0.20172639355072633
sg38
I0
sg39
F45.1875
ssS'MORAN MICHAEL P'
p255
(dp256
g3
I672
sg4
g5
sg6
I0
sg7
F0.2692354651557151
sg8
g5
sg9
I00
sg10
F0.0
sg11
g5
sg12
S'michael.moran@enron.com'
p257
sg14
g5
sg15
I0
sg16
F0.7307645348442848
sg17
g5
sg18
I127
sg19
g5
sg20
I19
sg21
g5
sg22
I0
sg23
I0
sg24
g5
sg25
g5
sg26
I221141
sg27
I0
sg28
I0
sg29
I161602
sg30
F0.0
sg31
g5
sg32
I0
sg33
g5
sg34
I0
sg35
I59539
sg36
I0
sg37
I0
sg38
I0
sg39
F6.684210526315789
ssS'REDMOND BRIAN L'
p258
(dp259
g3
I1671
sg4
g5
sg6
I0
sg7
F0.951676889314051
sg8
I14689
sg9
I00
sg10
F0.9230769230769231
sg11
g5
sg12
S'brian.redmond@enron.com'
p260
sg14
g5
sg15
F0.8682943449685732
sg16
F0.048323110685949015
sg17
g5
sg18
I1063
sg19
g5
sg20
I221
sg21
g5
sg22
F0.1317056550314268
sg23
I0
sg24
g5
sg25
g5
sg26
I7890324
sg27
I204
sg28
I49
sg29
I381285
sg30
F0.029323758228605626
sg31
I96840
sg32
I0
sg33
I111529
sg34
I0
sg35
I7509039
sg36
F0.014134907514571011
sg37
I0
sg38
I0
sg39
F4.8099547511312215
ssS'BAZELIDES PHILIP J'
p261
(dp262
g3
g5
sg4
I684694
sg6
I0
sg7
F1.0
sg8
g5
sg9
I00
sg10
I0
sg11
g5
sg12
g5
sg14
I93750
sg15
F0.0939595598835533
sg16
I0
sg17
g5
sg18
g5
sg19
g5
sg20
g5
sg21
I874
sg22
I0
sg23
I0
sg24
g5
sg25
g5
sg26
I1599641
sg27
g5
sg28
g5
sg29
g5
sg30
I0
sg31
I80818
sg32
F0.10899439158458663
sg33
I860136
sg34
F0.10899439158458663
sg35
I1599641
sg36
F0.5377056477047037
sg37
F0.0010161183812792396
sg38
I0
sg39
I0
ssS'BELDEN TIMOTHY N'
p263
(dp264
g3
I7991
sg4
I2144013
sg6
I0
sg7
F0.8581360487258093
sg8
I17355
sg9
I01
sg10
F0.47107438016528924
sg11
I2334434
sg12
S'tim.belden@enron.com'
p265
sg14
g5
sg15
F0.03889738132153562
sg16
F0.1418639512741907
sg17
g5
sg18
I5521
sg19
g5
sg20
I484
sg21
I210698
sg22
F0.003154519660536968
sg23
F0.9542624640333864
sg24
g5
sg25
I5249999
sg26
I1110705
sg27
I228
sg28
I108
sg29
I157569
sg30
F0.013515204605180828
sg31
I213999
sg32
I0
sg33
I5501630
sg34
I0
sg35
I953136
sg36
F4.953277422898069
sg37
F0.03829737732272072
sg38
F0.4243167933866872
sg39
F11.40702479338843
ssS'DURAN WILLIAM D'
p266
(dp267
g3
I904
sg4
g5
sg6
I0
sg7
F0.8847950222742259
sg8
I25785
sg9
I00
sg10
F8.833333333333334
sg11
g5
sg12
S'w.duran@enron.com'
p268
sg14
I1105218
sg15
F0.10065242637929396
sg16
F0.11520497772577411
sg17
g5
sg18
I599
sg19
g5
sg20
I12
sg21
I1568
sg22
F0.01231808903133529
sg23
F0.3582922929416896
sg24
g5
sg25
I750000
sg26
I1640910
sg27
I106
sg28
I3
sg29
I189041
sg30
F0.00331858407079646
sg31
I210692
sg32
F0.5279881218939044
sg33
I2093263
sg34
F0.5279881218939044
sg35
I1451869
sg36
F1.2756720356387614
sg37
F0.0007490697537767591
sg38
I0
sg39
F49.916666666666664
ssS'THORN TERENCE H'
p269
(dp270
g3
I266
sg4
I16586
sg6
I0
sg7
F0.9241727960254025
sg8
I46145
sg9
I00
sg10
F0.0
sg11
g5
sg12
S'terence.thorn@enron.com'
p271
sg14
I200000
sg15
F0.24366917438419755
sg16
F0.07582720397459751
sg17
g5
sg18
I73
sg19
g5
sg20
I41
sg21
I426629
sg22
F0.050627953388710116
sg23
I0
sg24
g5
sg25
g5
sg26
I4817796
sg27
I0
sg28
I0
sg29
I365320
sg30
F0.0
sg31
I222093
sg32
F0.21942985540669677
sg33
I911453
sg34
F0.21942985540669677
sg35
I4452476
sg36
F0.18918463961529297
sg37
F0.4680756989115182
sg38
I0
sg39
F1.7804878048780488
ssS'FASTOW ANDREW S'
p272
(dp273
g3
g5
sg4
g5
sg6
I0
sg7
I0
sg8
I55921
sg9
I01
sg10
I0
sg11
I1386055
sg12
S'andrew.fastow@enron.com'
p274
sg14
I1736055
sg15
F0.1817998806146489
sg16
F1.0
sg17
g5
sg18
g5
sg19
g5
sg20
g5
sg21
I277464
sg22
F0.02306892957048088
sg23
F0.5362852674599013
sg24
g5
sg25
I1300000
sg26
I1794412
sg27
g5
sg28
g5
sg29
I1794412
sg30
I0
sg31
I440698
sg32
F0.7161697846154608
sg33
I2424083
sg34
F0.7161697846154608
sg35
g5
sg36
F1.3509065922430301
sg37
F0.11446142726961082
sg38
F0.5717852895301028
sg39
I0
ssS'FOY JOE'
p275
(dp276
g3
I57
sg4
I181755
sg6
I0
sg7
F1.0
sg8
g5
sg9
I00
sg10
F0.0
sg11
g5
sg12
S'tracy.foy@enron.com'
p277
sg14
g5
sg15
I0
sg16
I0
sg17
g5
sg18
I2
sg19
g5
sg20
I13
sg21
g5
sg22
I0
sg23
I0
sg24
g5
sg25
g5
sg26
I343434
sg27
I0
sg28
I0
sg29
g5
sg30
F0.0
sg31
g5
sg32
I0
sg33
I181755
sg34
I0
sg35
I343434
sg36
F0.5292283233459704
sg37
I0
sg38
I0
sg39
F0.15384615384615385
ssS'CALGER CHRISTOPHER F'
p278
(dp279
g3
I2598
sg4
g5
sg6
I0
sg7
I0
sg8
I35818
sg9
I01
sg10
F1.3819444444444444
sg11
I262500
sg12
S'christopher.calger@enron.com'
p280
sg14
I375304
sg15
F0.14651951415759315
sg16
F1.0
sg17
g5
sg18
I2188
sg19
g5
sg20
I144
sg21
I486
sg22
F0.021849609924254117
sg23
F0.7625219835087845
sg24
g5
sg25
I1250000
sg26
I126027
sg27
I199
sg28
I25
sg29
I126027
sg30
F0.00962278675904542
sg31
I240189
sg32
F0.22894204039902472
sg33
I1639297
sg34
F0.22894204039902472
sg35
g5
sg36
F13.007506328009077
sg37
F0.00029646854718821546
sg38
F0.16012961653684477
sg39
F15.194444444444445
ssS'RICE KENNETH D'
p281
(dp282
g3
I905
sg4
g5
sg6
I0
sg7
F0.8780809916753388
sg8
I46950
sg9
I01
sg10
F2.3333333333333335
sg11
I3504386
sg12
S'ken.rice@enron.com'
p283
sg14
I1617011
sg15
F0.8328601128601129
sg16
F0.12191900832466121
sg17
g5
sg18
I864
sg19
g5
sg20
I18
sg21
I174839
sg22
F0.09296109296109296
sg23
F3.465003465003465
sg24
g5
sg25
I1750000
sg26
I22542539
sg27
I42
sg28
I4
sg29
I2748364
sg30
F0.004419889502762431
sg31
I420636
sg32
F3.2016849816849815
sg33
I505050
sg34
F3.2016849816849815
sg35
I19794175
sg36
F0.02240430858298615
sg37
F0.3461815661815662
sg38
F6.938691218691218
sg39
F48.0
ssS'KAMINSKI WINCENTY J'
p284
(dp285
g3
I4607
sg4
g5
sg6
I0
sg7
F0.8708788703706929
sg8
I83585
sg9
I00
sg10
F0.002853563474387528
sg11
g5
sg12
S'vince.kaminski@enron.com'
p286
sg14
I323466
sg15
F0.2531244795601116
sg16
F0.12912112962930708
sg17
g5
sg18
I583
sg19
g5
sg20
I14368
sg21
I4669
sg22
F0.07690778886311546
sg23
F0.368045887961311
sg24
g5
sg25
I400000
sg26
I976037
sg27
I41
sg28
I171
sg29
I126027
sg30
F0.03711742999782939
sg31
I275101
sg32
F0.29762582798823356
sg33
I1086821
sg34
F0.29762582798823356
sg35
I850010
sg36
F1.1135038938073045
sg37
F0.004296015627228403
sg38
I0
sg39
F0.04057628062360802
ssS'COX DAVID'
p287
(dp288
g3
I102
sg4
g5
sg6
I0
sg7
F0.23717347311417925
sg8
I27861
sg9
I00
sg10
F0.0
sg11
I41250
sg12
S'chip.cox@enron.com'
p289
sg14
g5
sg15
F0.28535500044035145
sg16
F0.7628265268858208
sg17
g5
sg18
I71
sg19
g5
sg20
I33
sg21
I494
sg22
F0.025296147696598763
sg23
F0.7263529003725282
sg24
g5
sg25
I800000
sg26
I495633
sg27
I0
sg28
I4
sg29
I378082
sg30
F0.0392156862745098
sg31
I314288
sg32
I0
sg33
I1101393
sg34
I0
sg35
I117551
sg36
F2.222194648056122
sg37
F0.0004485229159800362
sg38
F0.037452571425458485
sg39
F2.1515151515151514
ssS'OVERDYKE JR JERE C'
p290
(dp291
g3
g5
sg4
g5
sg6
I0
sg7
F0.7206993163550137
sg8
I18834
sg9
I00
sg10
I0
sg11
g5
sg12
S'jere.overdyke@enron.com'
p292
sg14
I135836
sg15
F0.38008783483527964
sg16
F0.2793006836449863
sg17
g5
sg18
g5
sg19
g5
sg20
g5
sg21
I176
sg22
F0.07540024100533654
sg23
I0
sg24
g5
sg25
g5
sg26
I7307594
sg27
g5
sg28
g5
sg29
I2041016
sg30
I0
sg31
I94941
sg32
F0.5438073238399116
sg33
I249787
sg34
F0.5438073238399116
sg35
I5266578
sg36
F0.03418183878305226
sg37
F0.0007046003194721903
sg38
I0
sg39
I0
ssS'PEREIRA PAULO V. FERRAZ'
p293
(dp294
g3
g5
sg4
g5
sg6
I0
sg7
I0
sg8
I27942
sg9
I00
sg10
I0
sg11
I101250
sg12
g5
sg14
g5
sg15
I0
sg16
I0
sg17
g5
sg18
g5
sg19
g5
sg20
g5
sg21
g5
sg22
F1.0
sg23
I0
sg24
I101250
sg25
g5
sg26
g5
sg27
g5
sg28
g5
sg29
g5
sg30
I0
sg31
g5
sg32
I0
sg33
I27942
sg34
I0
sg35
g5
sg36
I0
sg37
I0
sg38
F3.623577410350011
sg39
I0
ssS'STABLER FRANK'
p295
(dp296
g3
g5
sg4
g5
sg6
I0
sg7
I0
sg8
I16514
sg9
I00
sg10
I0
sg11
g5
sg12
S'frank.stabler@enron.com'
p297
sg14
g5
sg15
F0.21536264698715119
sg16
F1.0
sg17
g5
sg18
g5
sg19
g5
sg20
g5
sg21
I356071
sg22
F0.01484955763353047
sg23
F0.44960511183027946
sg24
g5
sg25
I500000
sg26
I511734
sg27
g5
sg28
g5
sg29
I511734
sg30
I0
sg31
I239502
sg32
I0
sg33
I1112087
sg34
I0
sg35
g5
sg36
F2.1731739536556103
sg37
F0.3201826835490389
sg38
I0
sg39
I0
ssS'SKILLING JEFFREY K'
p298
(dp299
g3
I3627
sg4
g5
sg6
I0
sg7
F0.7377267561269261
sg8
I29336
sg9
I01
sg10
F0.8148148148148148
sg11
g5
sg12
S'jeff.skilling@enron.com'
p300
sg14
I1920000
sg15
F0.12798506826665756
sg16
F0.2622732438730739
sg17
g5
sg18
I2042
sg19
g5
sg20
I108
sg21
I22122
sg22
F0.003378666306717852
sg23
F0.6449594804206426
sg24
g5
sg25
I5600000
sg26
I26093672
sg27
I88
sg28
I30
sg29
I6843672
sg30
F0.008271298593879239
sg31
I1111258
sg32
F0.22112896471564888
sg33
I8682716
sg34
F0.22112896471564888
sg35
I19250000
sg36
F0.3327517874831875
sg37
F0.002547820290333117
sg38
I0
sg39
F18.90740740740741
ssS'BLAKE JR. NORMAN P'
p301
(dp302
g3
g5
sg4
g5
sg6
I0
sg7
I0
sg8
I1279
sg9
I00
sg10
I0
sg11
I113784
sg12
g5
sg14
g5
sg15
I0
sg16
I0
sg17
g5
sg18
g5
sg19
g5
sg20
g5
sg21
g5
sg22
F1.0
sg23
I0
sg24
I113784
sg25
g5
sg26
g5
sg27
g5
sg28
g5
sg29
g5
sg30
I0
sg31
g5
sg32
I0
sg33
I1279
sg34
I0
sg35
g5
sg36
I0
sg37
I0
sg38
F88.9632525410477
sg39
I0
ssS'SHERRICK JEFFREY B'
p303
(dp304
g3
I613
sg4
g5
sg6
I0
sg7
F0.7784414243522942
sg8
g5
sg9
I00
sg10
F1.56
sg11
g5
sg12
S'jeffrey.sherrick@enron.com'
p305
sg14
g5
sg15
I0
sg16
F0.22155857564770573
sg17
g5
sg18
I583
sg19
g5
sg20
I25
sg21
g5
sg22
I0
sg23
I0
sg24
g5
sg25
g5
sg26
I1832468
sg27
I39
sg28
I18
sg29
I405999
sg30
F0.02936378466557912
sg31
g5
sg32
I0
sg33
g5
sg34
I0
sg35
I1426469
sg36
I0
sg37
I0
sg38
I0
sg39
F23.32
ssS'PRENTICE JAMES'
p306
(dp307
g3
g5
sg4
I564348
sg6
I0
sg7
F0.8093138150204559
sg8
g5
sg9
I00
sg10
I0
sg11
g5
sg12
S'james.prentice@enron.com'
p308
sg14
g5
sg15
I0
sg16
F0.19068618497954412
sg17
g5
sg18
g5
sg19
g5
sg20
g5
sg21
g5
sg22
I0
sg23
I0
sg24
g5
sg25
g5
sg26
I1095040
sg27
g5
sg28
g5
sg29
I208809
sg30
I0
sg31
g5
sg32
I0
sg33
I564348
sg34
I0
sg35
I886231
sg36
F0.5153674751607247
sg37
I0
sg38
I0
sg39
I0
ssS'GRAY RODNEY'
p309
(dp310
g3
g5
sg4
I93585
sg6
I0
sg7
I0
sg8
g5
sg9
I00
sg10
I0
sg11
g5
sg12
g5
sg14
I365625
sg15
F0.005768938951282772
sg16
I0
sg17
g5
sg18
g5
sg19
g5
sg20
g5
sg21
I680833
sg22
I0
sg23
I0
sg24
g5
sg25
g5
sg26
g5
sg27
g5
sg28
g5
sg29
g5
sg30
I0
sg31
I6615
sg32
F0.3188614216270239
sg33
I1146658
sg34
F0.3188614216270239
sg35
g5
sg36
I0
sg37
F0.5937541969793958
sg38
I0
sg39
I0
ssS'PICKERING MARK R'
p311
(dp312
g3
I898
sg4
g5
sg6
I0
sg7
F1.0
sg8
I31653
sg9
I00
sg10
F0.1044776119402985
sg11
g5
sg12
S'mark.pickering@enron.com'
p313
sg14
g5
sg15
F0.47237450331364617
sg16
I0
sg17
g5
sg18
I728
sg19
I400000
sg20
I67
sg21
g5
sg22
F0.022826298595937086
sg23
F0.21634251346732147
sg24
g5
sg25
I300000
sg26
I28798
sg27
I7
sg28
I0
sg29
g5
sg30
F0.0
sg31
I655037
sg32
I0
sg33
I1386690
sg34
I0
sg35
I28798
sg36
F48.15230224321133
sg37
I0
sg38
I0
sg39
F10.865671641791044
ssS'NOLES JAMES L'
p314
(dp315
g3
g5
sg4
I774401
sg6
F0.2564543469711558
sg7
I0
sg8
g5
sg9
I00
sg10
I0
sg11
g5
sg12
g5
sg14
g5
sg15
I0
sg16
F1.2564543469711558
sg17
I94556
sg18
g5
sg19
g5
sg20
g5
sg21
g5
sg22
I0
sg23
I0
sg24
g5
sg25
g5
sg26
I368705
sg27
g5
sg28
g5
sg29
I463261
sg30
I0
sg31
g5
sg32
I0
sg33
I774401
sg34
I0
sg35
g5
sg36
F2.10032681954408
sg37
I0
sg38
I0
sg39
I0
ssS'KEAN STEVEN J'
p316
(dp317
g3
I12754
sg4
g5
sg6
I0
sg7
F0.32859370109603386
sg8
I41953
sg9
I00
sg10
F0.020713123243083296
sg11
g5
sg12
S'steven.kean@enron.com'
p318
sg14
I300000
sg15
F0.23137791684453757
sg16
F0.6714062989039662
sg17
g5
sg18
I3639
sg19
g5
sg20
I6759
sg21
I1231
sg22
F0.02400713696308258
sg23
F0.5722388616566773
sg24
g5
sg25
I1000000
sg26
I6153642
sg27
I140
sg28
I387
sg29
I4131594
sg30
F0.03034342167163243
sg31
I404338
sg32
F0.1716716584970032
sg33
I1747522
sg34
F0.1716716584970032
sg35
I2022048
sg36
F0.28398174609442667
sg37
F0.0007044260386993697
sg38
I0
sg39
F0.538393253439858
ssS'FOWLER PEGGY'
p319
(dp320
g3
I517
sg4
g5
sg6
I0
sg7
F0.7027878528057863
sg8
g5
sg9
I00
sg10
F0.0
sg11
g5
sg12
S'kulvinder.fowler@enron.com'
p321
sg14
g5
sg15
I0
sg16
F0.29721214719421374
sg17
g5
sg18
I10
sg19
g5
sg20
I36
sg21
g5
sg22
I0
sg23
I0
sg24
g5
sg25
g5
sg26
I1884748
sg27
I0
sg28
I0
sg29
I560170
sg30
F0.0
sg31
g5
sg32
I0
sg33
g5
sg34
I0
sg35
I1324578
sg36
I0
sg37
I0
sg38
I0
sg39
F0.2777777777777778
ssS'WASAFF GEORGE'
p322
(dp323
g3
I400
sg4
I831299
sg6
I0
sg7
F0.8112420231790382
sg8
g5
sg9
I00
sg10
F0.7333333333333333
sg11
I583325
sg12
S'george.wasaff@enron.com'
p324
sg14
I200000
sg15
F0.2513507895919837
sg16
F0.1887579768209618
sg17
g5
sg18
I337
sg19
g5
sg20
I30
sg21
I1425
sg22
I0
sg23
F0.3141933207333755
sg24
g5
sg25
I325000
sg26
I2056427
sg27
I22
sg28
I7
sg29
I388167
sg30
F0.0175
sg31
I259996
sg32
F0.1933497358359234
sg33
I1034395
sg34
F0.1933497358359234
sg35
I1668260
sg36
F0.5030059418593512
sg37
F0.0013776168678309544
sg38
F0.5639286732824501
sg39
F11.233333333333333
ssS'WHITE JR THOMAS E'
p325
(dp326
g3
g5
sg4
g5
sg6
I0
sg7
F0.08564701963923563
sg8
I81353
sg9
I00
sg10
I0
sg11
g5
sg12
S'thomas.white@enron.com'
p327
sg14
g5
sg15
F0.1641592899766796
sg16
F0.9143529803607644
sg17
g5
sg18
g5
sg19
g5
sg20
g5
sg21
I1085463
sg22
F0.042056826059692125
sg23
F0.23263520370313887
sg24
g5
sg25
I450000
sg26
I15144123
sg27
g5
sg28
g5
sg29
I13847074
sg30
I0
sg31
I317543
sg32
I0
sg33
I1934359
sg34
I0
sg35
I1297049
sg36
F0.12773001117331126
sg37
F0.5611486802604894
sg38
I0
sg39
I0
ssS'CHRISTODOULOU DIOMEDES'
p328
(dp329
g3
g5
sg4
g5
sg6
I0
sg7
F0.8435755201027989
sg8
g5
sg9
I00
sg10
I0
sg11
g5
sg12
S'diomedes.christodoulou@enron.com'
p330
sg14
g5
sg15
I0
sg16
F0.15642447989720107
sg17
g5
sg18
g5
sg19
g5
sg20
g5
sg21
g5
sg22
I0
sg23
I0
sg24
g5
sg25
g5
sg26
I6077885
sg27
g5
sg28
g5
sg29
I950730
sg30
I0
sg31
g5
sg32
I0
sg33
g5
sg34
I0
sg35
I5127155
sg36
I0
sg37
I0
sg38
I0
sg39
I0
ssS'ALLEN PHILLIP K'
p331
(dp332
g3
I2902
sg4
I2869717
sg6
F0.07286730988163911
sg7
F1.0
sg8
I13868
sg9
I00
sg10
F0.0214123006833713
sg11
I3081055
sg12
S'phillip.allen@enron.com'
p333
sg14
I304805
sg15
F0.04503458847276874
sg16
F0.07286730988163911
sg17
I126027
sg18
I1407
sg19
g5
sg20
I2195
sg21
I152
sg22
F0.0030924694755780093
sg23
F0.9309965431596617
sg24
g5
sg25
I4175000
sg26
I1729541
sg27
I47
sg28
I65
sg29
I126027
sg30
F0.022398345968297727
sg31
I201955
sg32
F0.06796943744617502
sg33
I4484442
sg34
F0.06796943744617502
sg35
I1729541
sg36
F2.592850935595051
sg37
F3.38949639665314e-05
sg38
F0.6870542644993514
sg39
F0.6410022779043281
ssS'SHARP VICTORIA T'
p334
(dp335
g3
I3136
sg4
I187469
sg6
I0
sg7
F0.5688170867939191
sg8
I116337
sg9
I00
sg10
F0.17647058823529413
sg11
g5
sg12
S'vicki.sharp@enron.com'
p336
sg14
I422158
sg15
F0.15740200988131386
sg16
F0.43118291320608093
sg17
g5
sg18
I2477
sg19
g5
sg20
I136
sg21
I2401
sg22
F0.07379396655018582
sg23
F0.38058725882661143
sg24
g5
sg25
I600000
sg26
I494136
sg27
I24
sg28
I6
sg29
I213063
sg30
F0.001913265306122449
sg31
I248146
sg32
F0.2677799266862077
sg33
I1576511
sg34
F0.2677799266862077
sg35
I281073
sg36
F3.190439474152865
sg37
F0.00152298334740449
sg38
I0
sg39
F18.21323529411765
ssS'JAEDICKE ROBERT'
p337
(dp338
g3
g5
sg4
g5
sg6
F0.10212623045744065
sg7
F1.0
sg8
g5
sg9
I00
sg10
I0
sg11
I25000
sg12
g5
sg14
g5
sg15
I0
sg16
F0.10212623045744065
sg17
I44093
sg18
g5
sg19
g5
sg20
g5
sg21
g5
sg22
I0
sg23
I0
sg24
I108750
sg25
g5
sg26
I431750
sg27
g5
sg28
g5
sg29
I44093
sg30
I0
sg31
g5
sg32
I0
sg33
I83750
sg34
I0
sg35
I431750
sg36
F0.19397799652576722
sg37
I0
sg38
F0.29850746268656714
sg39
I0
ssS'WINOKUR JR. HERBERT S'
p339
(dp340
g3
g5
sg4
g5
sg6
I0
sg7
I0
sg8
I1413
sg9
I00
sg10
I0
sg11
I25000
sg12
g5
sg14
g5
sg15
I0
sg16
I0
sg17
g5
sg18
g5
sg19
g5
sg20
g5
sg21
g5
sg22
F0.016625094126506024
sg23
I0
sg24
I108579
sg25
g5
sg26
g5
sg27
g5
sg28
g5
sg29
g5
sg30
I0
sg31
g5
sg32
I0
sg33
I84992
sg34
I0
sg35
g5
sg36
I0
sg37
I0
sg38
F0.2941453313253012
sg39
I0
ssS'BROWN MICHAEL'
p341
(dp342
g3
I1486
sg4
g5
sg6
I0
sg7
I0
sg8
I49288
sg9
I00
sg10
F0.3170731707317073
sg11
g5
sg12
S'michael.brown@enron.com'
p343
sg14
g5
sg15
I0
sg16
I0
sg17
g5
sg18
I761
sg19
g5
sg20
I41
sg21
g5
sg22
F1.0
sg23
I0
sg24
g5
sg25
g5
sg26
g5
sg27
I13
sg28
I1
sg29
g5
sg30
F0.0006729475100942127
sg31
g5
sg32
I0
sg33
I49288
sg34
I0
sg35
g5
sg36
I0
sg37
I0
sg38
I0
sg39
F18.5609756097561
ssS'BADUM JAMES P'
p344
(dp345
g3
g5
sg4
I178980
sg6
I0
sg7
F1.0
sg8
I3486
sg9
I00
sg10
I0
sg11
g5
sg12
g5
sg14
g5
sg15
I0
sg16
I0
sg17
g5
sg18
g5
sg19
g5
sg20
g5
sg21
g5
sg22
F0.019104929137483146
sg23
I0
sg24
g5
sg25
g5
sg26
I257817
sg27
g5
sg28
g5
sg29
g5
sg30
I0
sg31
g5
sg32
I0
sg33
I182466
sg34
I0
sg35
I257817
sg36
F0.7077345559059333
sg37
I0
sg38
I0
sg39
I0
ssS'HUGHES JAMES A'
p346
(dp347
g3
I719
sg4
g5
sg6
I0
sg7
F0.6750447516706992
sg8
g5
sg9
I00
sg10
F1.0294117647058822
sg11
g5
sg12
S'james.hughes@enron.com'
p348
sg14
g5
sg15
I0
sg16
F0.3249552483293008
sg17
g5
sg18
I589
sg19
g5
sg20
I34
sg21
g5
sg22
I0
sg23
I0
sg24
g5
sg25
g5
sg26
I1118394
sg27
I35
sg28
I5
sg29
I363428
sg30
F0.006954102920723227
sg31
g5
sg32
I0
sg33
g5
sg34
I0
sg35
I754966
sg36
I0
sg37
I0
sg38
I0
sg39
F17.323529411764707
ssS'REYNOLDS LAWRENCE'
p349
(dp350
g3
g5
sg4
I51365
sg6
F0.033223027311695165
sg7
F0.9854996256416853
sg8
I8409
sg9
I00
sg10
I0
sg11
I200000
sg12
g5
sg14
I156250
sg15
F0.1936726028265416
sg16
F0.047723401670009956
sg17
I140264
sg18
g5
sg19
g5
sg20
g5
sg21
I202052
sg22
F0.021316940237023893
sg23
F0.2535014893212498
sg24
g5
sg25
I100000
sg26
I4221891
sg27
g5
sg28
g5
sg29
I201483
sg30
I0
sg31
I76399
sg32
F0.39609607706445277
sg33
I394475
sg34
F0.39609607706445277
sg35
I4160672
sg36
F0.09343561925213133
sg37
F0.5122048292033715
sg38
F0.5070029786424995
sg39
I0
ssS'DIMICHELE RICHARD G'
p351
(dp352
g3
g5
sg4
g5
sg6
I0
sg7
F0.9848484848484849
sg8
I35812
sg9
I00
sg10
I0
sg11
g5
sg12
S'richard.dimichele@enron.com'
p353
sg14
I694862
sg15
F0.11096758610409556
sg16
F0.015151515151515152
sg17
g5
sg18
g5
sg19
g5
sg20
g5
sg21
I374689
sg22
F0.015122346505776025
sg23
F0.42227037042823706
sg24
g5
sg25
I1000000
sg26
I8317782
sg27
g5
sg28
g5
sg29
I126027
sg30
I0
sg31
I262788
sg32
F0.2934196341365057
sg33
I2368151
sg34
F0.2934196341365057
sg35
I8191755
sg36
F0.2847094333561519
sg37
F0.1582200628253857
sg38
I0
sg39
I0
ssS'BHATNAGAR SANJAY'
p354
(dp355
g3
I523
sg4
g5
sg6
I0
sg7
I0
sg8
g5
sg9
I00
sg10
F0.0
sg11
g5
sg12
S'sanjay.bhatnagar@enron.com'
p356
sg14
g5
sg15
I0
sg16
I0
sg17
I15456290
sg18
I463
sg19
g5
sg20
I29
sg21
I137864
sg22
I0
sg23
I0
sg24
I137864
sg25
g5
sS'total_stock_value'
p357
S'NaN'
p358
sg27
I0
sg28
I1
sg29
I2604490
sg30
F0.0019120458891013384
sg31
g5
sg32
I0
sg33
I15456290
sg34
I0
sg35
I2604490
sg36
I0
sg37
F0.00891960489871761
sg38
I0
sg39
F15.96551724137931
ssS'CARTER REBECCA C'
p359
(dp360
g3
I312
sg4
g5
sg6
I0
sg7
I0
sg8
g5
sg9
I00
sg10
F1.9333333333333333
sg11
I159792
sg12
S'rebecca.carter@enron.com'
p361
sg14
I75000
sg15
F0.5482256568325875
sg16
I0
sg17
I307301
sg18
I196
sg19
g5
sg20
I15
sg21
I540
sg22
I0
sg23
F0.6281972623163308
sg24
g5
sg25
I300000
sg26
g5
sg27
I29
sg28
I7
sg29
I307301
sg30
F0.022435897435897436
sg31
I261809
sg32
F0.1570493155790827
sg33
I477557
sg34
F0.1570493155790827
sg35
g5
sg36
I0
sg37
F0.0011307550721693955
sg38
F0.33460298980017045
sg39
F13.066666666666666
ssS'BUCHANAN HAROLD G'
p362
(dp363
g3
I1088
sg4
g5
sg6
I0
sg7
F0.8136618350821336
sg8
I600
sg9
I00
sg10
F0.0
sg11
g5
sg12
S'john.buchanan@enron.com'
p364
sg14
I304805
sg15
F0.23516811945721608
sg16
F0.18633816491786634
sg17
g5
sg18
I23
sg19
g5
sg20
I125
sg21
I1215
sg22
F0.000568916129436005
sg23
F0.47409677453000415
sg24
g5
sg25
I500000
sg26
I1014505
sg27
I0
sg28
I0
sg29
I189041
sg30
F0.0
sg31
I248017
sg32
F0.2890141347212358
sg33
I1054637
sg34
F0.2890141347212358
sg35
I825464
sg36
F1.039558208190201
sg37
F0.0011520551621079101
sg38
I0
sg39
F0.184
ssS'YEAP SOON'
p365
(dp366
g3
g5
sg4
g5
sg6
I0
sg7
F1.0
sg8
I55097
sg9
I00
sg10
I0
sg11
g5
sg12
g5
sg14
g5
sg15
I0
sg16
I0
sg17
g5
sg18
g5
sg19
g5
sg20
g5
sg21
g5
sg22
F1.0
sg23
I0
sg24
g5
sg25
g5
sg26
I192758
sg27
g5
sg28
g5
sg29
g5
sg30
I0
sg31
g5
sg32
I0
sg33
I55097
sg34
I0
sg35
I192758
sg36
F0.2858350885566358
sg37
I0
sg38
I0
sg39
I0
ssS'MURRAY JULIA H'
p367
(dp368
g3
I2192
sg4
g5
sg6
I0
sg7
F0.6702998187329382
sg8
I57580
sg9
I00
sg10
F0.24444444444444444
sg11
g5
sg12
S'julia.murray@enron.com'
p369
sg14
I125000
sg15
F0.2823020115883644
sg16
F0.3297001812670618
sg17
g5
sg18
I395
sg19
g5
sg20
I45
sg21
I330
sg22
F0.07089439222648776
sg23
F0.4924931728133919
sg24
g5
sg25
I400000
sg26
I597461
sg27
I11
sg28
I2
sg29
I196983
sg30
F0.0009124087591240876
sg31
I229284
sg32
F0.15390411650418495
sg33
I812194
sg34
F0.15390411650418495
sg35
I400478
sg36
F1.35940923340603
sg37
F0.0004063068675710483
sg38
I0
sg39
F8.777777777777779
ssS'GARLAND C KEVIN'
p370
(dp371
g3
I209
sg4
g5
sg6
I0
sg7
F0.7099747476156415
sg8
I48405
sg9
I00
sg10
F0.22727272727272727
sg11
g5
sg12
S'kevin.garland@enron.com'
p372
sg14
I375304
sg15
F0.14806932023551056
sg16
F0.2900252523843585
sg17
g5
sg18
I178
sg19
g5
sg20
I44
sg21
I60814
sg22
F0.03090070725944784
sg23
F0.5426216541789208
sg24
g5
sg25
I850000
sg26
I896153
sg27
I10
sg28
I27
sg29
I259907
sg30
F0.1291866028708134
sg31
I231946
sg32
F0.23958597329407733
sg33
I1566469
sg34
F0.23958597329407733
sg35
I636246
sg36
F1.7479928092635968
sg37
F0.038822345032043404
sg38
I0
sg39
F4.045454545454546
ssS'DODSON KEITH'
p373
(dp374
g3
I176
sg4
g5
sg6
I0
sg7
I0
sg8
I28164
sg9
I00
sg10
F0.7142857142857143
sg11
g5
sg12
S'keith.dodson@enron.com'
p375
sg14
g5
sg15
F0.6907617341947422
sg16
I0
sg17
g5
sg18
I114
sg19
g5
sg20
I14
sg21
I774
sg22
F0.08802873029714854
sg23
F0.21879033946883958
sg24
g5
sg25
I70000
sg26
g5
sg27
I10
sg28
I3
sg29
g5
sg30
F0.017045454545454544
sg31
I221003
sg32
I0
sg33
I319941
sg34
I0
sg35
g5
sg36
I0
sg37
F0.0024191960392697404
sg38
I0
sg39
F8.142857142857142
ssS'YEAGER F SCOTT'
p376
(dp377
g3
g5
sg4
g5
sg6
I0
sg7
F0.6990930736662875
sg8
I53947
sg9
I01
sg10
I0
sg11
g5
sg12
S'scott.yeager@enron.com'
p378
sg14
g5
sg15
F0.4396419650291424
sg16
F0.30090692633371247
sg17
g5
sg18
g5
sg19
g5
sg20
g5
sg21
I147950
sg22
F0.14972800444074383
sg23
I0
sg24
g5
sg25
g5
sg26
I11884758
sg27
g5
sg28
g5
sg29
I3576206
sg30
I0
sg31
I158403
sg32
I0
sg33
I360300
sg34
I0
sg35
I8308552
sg36
F0.030316141060676205
sg37
F0.4106300305301138
sg38
I0
sg39
I0
ssS'HIRKO JOSEPH'
p379
(dp380
g3
g5
sg4
I10259
sg6
I0
sg7
F1.0
sg8
I77978
sg9
I01
sg10
I0
sg11
g5
sg12
S'joe.hirko@enron.com'
p381
sg14
g5
sg15
I0
sg16
I0
sg17
g5
sg18
g5
sg19
g5
sg20
g5
sg21
I2856
sg22
F0.8560262588782892
sg23
I0
sg24
g5
sg25
g5
sg26
I30766064
sg27
g5
sg28
g5
sg29
g5
sg30
I0
sg31
g5
sg32
I0
sg33
I91093
sg34
I0
sg35
I30766064
sg36
F0.0029608272283383405
sg37
F0.03135257374331727
sg38
I0
sg39
I0
ssS'DIETRICH JANET R'
p382
(dp383
g3
I2572
sg4
g5
sg6
I0
sg7
F0.8310706149364614
sg8
I3475
sg9
I00
sg10
F4.841269841269841
sg11
g5
sg12
S'janet.dietrich@enron.com'
p384
sg14
I556416
sg15
F0.1773175352224516
sg16
F0.16892938506353858
sg17
g5
sg18
I1902
sg19
g5
sg20
I63
sg21
I473
sg22
F0.0024637282482927606
sg23
F0.4253919277627788
sg24
g5
sg25
I600000
sg26
I1865087
sg27
I305
sg28
I14
sg29
I315068
sg30
F0.005443234836702955
sg31
I250100
sg32
F0.3944914581300905
sg33
I1410464
sg34
F0.3944914581300905
sg35
I1550019
sg36
F0.756245687198506
sg37
F0.00033535063638632395
sg38
I0
sg39
F30.19047619047619
ssS'DERRICK JR. JAMES V'
p385
(dp386
g3
I2181
sg4
g5
sg6
F0.20237744642638578
sg7
F1.0
sg8
I51124
sg9
I00
sg10
F0.0704070407040704
sg11
I1284000
sg12
S'james.derrick@enron.com'
p387
sg14
I484000
sg15
F0.8936333557781484
sg16
F0.20237744642638578
sg17
I1787380
sg18
I1401
sg19
g5
sg20
I909
sg21
I7482
sg22
F0.09278722859771935
sg23
F1.4519556935720106
sg24
g5
sg25
I800000
sg26
I8831913
sg27
I64
sg28
I20
sg29
I1787380
sg30
F0.009170105456212746
sg31
I492375
sg32
F0.8784331946110664
sg33
I550981
sg34
F0.8784331946110664
sg35
I8831913
sg36
F0.06238523862270835
sg37
F0.01357941562413223
sg38
F2.330388888183077
sg39
F1.5412541254125414
ssS'FREVERT MARK A'
p388
(dp389
g3
I3275
sg4
I6426990
sg6
I0
sg7
F0.713540281428528
sg8
I86987
sg9
I00
sg10
F11.523809523809524
sg11
I3367011
sg12
S'mark.frevert@enron.com'
p390
sg14
I1617011
sg15
F0.06149428518599881
sg16
F0.28645971857147207
sg17
g5
sg18
I2979
sg19
I2000000
sg20
I21
sg21
I7427621
sg22
F0.005041985146526336
sg23
F0.1159250266482655
sg24
g5
sg25
I2000000
sg26
I14622185
sg27
I242
sg28
I6
sg29
I4188667
sg30
F0.00183206106870229
sg31
I1060932
sg32
F0.09372602163276922
sg33
I17252530
sg34
F0.09372602163276922
sg35
I10433518
sg36
F1.179887274029155
sg37
F0.4305235811791082
sg38
F0.19516041995000152
sg39
F141.85714285714286
ssS'PAI LOU L'
p391
(dp392
g3
g5
sg4
g5
sg6
I0
sg7
F0.6450672665508715
sg8
I32047
sg9
I00
sg10
I0
sg11
g5
sg12
S'lou.pai@enron.com'
p393
sg14
g5
sg15
F0.08384466458324195
sg16
F0.35493273344912846
sg17
g5
sg18
g5
sg19
g5
sg20
g5
sg21
I1829457
sg22
F0.01026034911504609
sg23
F0.3201656665224854
sg24
g5
sg25
I1000000
sg26
I23817930
sg27
g5
sg28
g5
sg29
I8453763
sg30
I0
sg31
I261879
sg32
I0
sg33
I3123383
sg34
I0
sg35
I15364167
sg36
F0.13113578719897154
sg37
F0.5857293197792266
sg38
I0
sg39
I0
ssS'BAY FRANKLIN R'
p394
(dp395
g3
g5
sg4
I260455
sg6
F1.3137080648744723
sg7
I0
sg8
I129142
sg9
I00
sg10
I0
sg11
I201641
sg12
S'frank.bay@enron.com'
p396
sg14
g5
sg15
F0.2895640428369836
sg16
F2.3137080648744726
sg17
I82782
sg18
g5
sg19
g5
sg20
g5
sg21
I69
sg22
F0.15602588389940267
sg23
F0.48326921961686414
sg24
g5
sg25
I400000
sg26
I63014
sg27
g5
sg28
g5
sg29
I145796
sg30
I0
sg31
I239671
sg32
I0
sg33
I827696
sg34
I0
sg35
g5
sg36
F13.135112832069064
sg37
F8.336394038390907e-05
sg38
F0.24361722178191025
sg39
I0
ssS'HAYSLETT RODERICK J'
p397
(dp398
g3
I2649
sg4
g5
sg6
I0
sg7
I0
sg8
g5
sg9
I00
sg10
F0.03298774740810556
sg11
g5
sg12
S'rod.hayslett@enron.com'
p399
sg14
g5
sg15
I0
sg16
F1.0
sg17
g5
sg18
I571
sg19
g5
sg20
I1061
sg21
g5
sg22
I0
sg23
I0
sg24
g5
sg25
g5
sg26
I346663
sg27
I35
sg28
I38
sg29
I346663
sg30
F0.014345035862589657
sg31
g5
sg32
I0
sg33
g5
sg34
I0
sg35
g5
sg36
I0
sg37
I0
sg38
I0
sg39
F0.5381715362865221
ssS'FUGH JOHN L'
p400
(dp401
g3
g5
sg4
I50591
sg6
I0
sg7
F1.0
sg8
g5
sg9
I00
sg10
I0
sg11
g5
sg12
g5
sg14
g5
sg15
I0
sg16
I0
sg17
g5
sg18
g5
sg19
g5
sg20
g5
sg21
g5
sg22
I0
sg23
I0
sg24
g5
sg25
g5
sg26
I176378
sg27
g5
sg28
g5
sg29
g5
sg30
I0
sg31
g5
sg32
I0
sg33
I50591
sg34
I0
sg35
I176378
sg36
F0.28683282495549334
sg37
I0
sg38
I0
sg39
I0
ssS'FALLON JAMES B'
p402
(dp403
g3
I1755
sg4
g5
sg6
I0
sg7
F0.40312870996771993
sg8
I95924
sg9
I00
sg10
F0.56
sg11
g5
sg12
S'jim.fallon@enron.com'
p404
sg14
I374347
sg15
F0.08285087886321722
sg16
F0.5968712900322801
sg17
g5
sg18
I1604
sg19
g5
sg20
I75
sg21
I401481
sg22
F0.026092254796890386
sg23
F0.6800241544579664
sg24
g5
sg25
I2500000
sg26
I2332399
sg27
I42
sg28
I37
sg29
I1392142
sg30
F0.021082621082621083
sg31
I304588
sg32
F0.10182600085955053
sg33
I3676340
sg34
F0.10182600085955053
sg35
I940257
sg36
F1.5762054434082675
sg37
F0.10920671102237552
sg38
I0
sg39
F21.386666666666667
ssS'KOENIG MARK E'
p405
(dp406
g3
I2374
sg4
g5
sg6
I0
sg7
F0.3498529990026327
sg8
I127017
sg9
I01
sg10
F0.8688524590163934
sg11
g5
sg12
S'mark.koenig@enron.com'
p407
sg14
I300000
sg15
F0.19525129124535962
sg16
F0.6501470009973672
sg17
g5
sg18
I2271
sg19
g5
sg20
I61
sg21
I150458
sg22
F0.08001469049483408
sg23
F0.44096682606567505
sg24
g5
sg25
I700000
sg26
I1920055
sg27
I53
sg28
I15
sg29
I1248318
sg30
F0.006318449873631003
sg31
I309946
sg32
F0.18898578259957505
sg33
I1587421
sg34
F0.18898578259957505
sg35
I671737
sg36
F0.8267580876589473
sg37
F0.0947814095945562
sg38
I0
sg39
F37.22950819672131
ssS'SAVAGE FRANK'
p408
(dp409
g3
g5
sg4
g5
sg6
I0
sg7
I0
sg8
g5
sg9
I00
sg10
I0
sg11
I121284
sg12
g5
sg14
g5
sg15
I0
sg16
I0
sg17
g5
sg18
g5
sg19
g5
sg20
g5
sg21
g5
sg22
I0
sg23
I0
sg24
I125034
sg25
g5
sg26
g5
sg27
g5
sg28
g5
sg29
g5
sg30
I0
sg31
g5
sg32
I0
sg33
I3750
sg34
I0
sg35
g5
sg36
I0
sg37
I0
sg38
F32.3424
sg39
I0
ssS'IZZO LAWRENCE L'
p410
(dp411
g3
I496
sg4
g5
sg6
I0
sg7
F0.3720239588452194
sg8
I28093
sg9
I00
sg10
F1.4736842105263157
sg11
g5
sg12
S'larry.izzo@enron.com'
p412
sg14
I312500
sg15
F0.043076466107225916
sg16
F0.6279760411547806
sg17
g5
sg18
I437
sg19
g5
sg20
I19
sg21
I1553729
sg22
F0.014191279432773152
sg23
I0
sg24
g5
sg25
g5
sg26
I5819980
sg27
I28
sg28
I5
sg29
I3654808
sg30
F0.010080645161290322
sg31
I85274
sg32
F0.15786049274700495
sg33
I1979596
sg34
F0.15786049274700495
sg35
I2165172
sg36
F0.3401379386183458
sg37
F0.784871761712996
sg38
I0
sg39
F23.0
ssS'TILNEY ELIZABETH A'
p413
(dp414
g3
I460
sg4
g5
sg6
I0
sg7
F0.5061889897794771
sg8
g5
sg9
I00
sg10
F0.5263157894736842
sg11
I575000
sg12
S'elizabeth.tilney@enron.com'
p415
sg14
I275000
sg15
F0.6192847646303266
sg16
F0.4938110102205229
sg17
g5
sg18
I379
sg19
g5
sg20
I19
sg21
I152055
sg22
I0
sg23
F0.7511398547295521
sg24
g5
sg25
I300000
sg26
I1168042
sg27
I10
sg28
I11
sg29
I576792
sg30
F0.02391304347826087
sg31
I247338
sg32
F0.6885448668354227
sg33
I399393
sg34
F0.6885448668354227
sg35
I591250
sg36
F0.3419337660803293
sg37
F0.3807152353696735
sg38
F1.4396847215649748
sg39
F19.94736842105263
ssS'MARTIN AMANDA K'
p416
(dp417
g3
I1522
sg4
I85430
sg6
I0
sg7
F1.0
sg8
I8211
sg9
I00
sg10
F0.034782608695652174
sg11
g5
sg12
S'a..martin@enron.com'
p418
sg14
I5145434
sg15
F0.04157087366076144
sg16
I0
sg17
g5
sg18
I477
sg19
g5
sg20
I230
sg21
I2818454
sg22
F0.0009766842361189749
sg23
I0
sg24
g5
sg25
g5
sg26
I2070306
sg27
I8
sg28
I0
sg29
g5
sg30
F0.0
sg31
I349487
sg32
F0.6120404671526735
sg33
I8407016
sg34
F0.6120404671526735
sg35
I2070306
sg36
F4.060760100197749
sg37
F0.3352502243364352
sg38
I0
sg39
F2.0739130434782607
ssS'BUY RICHARD B'
p419
(dp420
g3
I3523
sg4
I649584
sg6
I0
sg7
F0.7382305550636237
sg8
g5
sg9
I00
sg10
F0.14814814814814814
sg11
I694862
sg12
S'rick.buy@enron.com'
p421
sg14
I769862
sg15
F0.14031740856865596
sg16
F0.26176944493637627
sg17
g5
sg18
I2333
sg19
g5
sg20
I1053
sg21
I400572
sg22
I0
sg23
F0.38205171961479
sg24
g5
sg25
I900000
sg26
I3444470
sg27
I156
sg28
I71
sg29
I901657
sg30
F0.02015327845586148
sg31
I330546
sg32
F0.32680788996231275
sg33
I2355702
sg34
F0.32680788996231275
sg35
I2542813
sg36
F0.6839084097117989
sg37
F0.17004357936615072
sg38
F0.29497024666108024
sg39
F2.2155745489078824
ssS'GRAMM WENDY L'
p422
(dp423
g3
g5
sg4
g5
sg6
I0
sg7
I0
sg8
g5
sg9
I00
sg10
I0
sg11
g5
sg12
g5
sg14
g5
sg15
I0
sg16
I0
sg17
g5
sg18
g5
sg19
g5
sg20
g5
sg21
g5
sg22
I0
sg23
I0
sg24
I119292
sg25
g5
sg26
g5
sg27
g5
sg28
g5
sg29
g5
sg30
I0
sg31
g5
sg32
I0
sg33
I119292
sg34
I0
sg35
g5
sg36
I0
sg37
I0
sg38
I0
sg39
I0
ssS'CAUSEY RICHARD A'
p424
(dp425
g3
I1892
sg4
g5
sg6
I0
sg7
I0
sg8
I30674
sg9
I01
sg10
F1.183673469387755
sg11
I235000
sg12
S'richard.causey@enron.com'
p426
sg14
I350000
sg15
F0.22217376460729532
sg16
F1.0
sg17
g5
sg18
I1585
sg19
g5
sg20
I49
sg21
I307895
sg22
F0.016414110334243386
sg23
F0.5351147660638778
sg24
g5
sg25
I1000000
sg26
I2502063
sg27
I58
sg28
I12
sg29
I2502063
sg30
F0.006342494714587738
sg31
I415189
sg32
F0.18729016812235721
sg33
I1868758
sg34
F0.18729016812235721
sg35
g5
sg36
F0.7468868689557377
sg37
F0.16475916089723763
sg38
F0.12575197002501126
sg39
F32.3469387755102
ssS'TAYLOR MITCHELL S'
p427
(dp428
g3
I533
sg4
I227449
sg6
I0
sg7
F0.849455067064561
sg8
g5
sg9
I00
sg10
F0.0
sg11
g5
sg12
S'mitchell.taylor@enron.com'
p429
sg14
g5
sg15
F0.24272259607948654
sg16
F0.15054493293543902
sg17
g5
sg18
I300
sg19
g5
sg20
I29
sg21
g5
sg22
I0
sg23
F0.5491171568910085
sg24
g5
sg25
I600000
sg26
I3745048
sg27
I0
sg28
I0
sg29
I563798
sg30
F0.0
sg31
I265214
sg32
I0
sg33
I1092663
sg34
I0
sg35
I3181250
sg36
F0.2917620815540949
sg37
I0
sg38
I0
sg39
F10.344827586206897
ssS'DONAHUE JR JEFFREY M'
p430
(dp431
g3
I865
sg4
g5
sg6
I0
sg7
F0.7085370050361336
sg8
I96268
sg9
I00
sg10
F8.545454545454545
sg11
I300000
sg12
S'jeff.donahue@enron.com'
p432
sg14
g5
sg15
F0.3181248287201973
sg16
F0.2914629949638664
sg17
g5
sg18
I772
sg19
g5
sg20
I22
sg21
I891
sg22
F0.1099250936329588
sg23
F0.9134922809902256
sg24
g5
sg25
I800000
sg26
I1080988
sg27
I188
sg28
I11
sg29
I315068
sg30
F0.012716763005780347
sg31
I278601
sg32
I0
sg33
I875760
sg34
I0
sg35
I765920
sg36
F0.8101477537215954
sg37
F0.0010174020279528637
sg38
F0.3425596053713346
sg39
F35.09090909090909
ssS'GLISAN JR BEN F'
p433
(dp434
g3
I873
sg4
g5
sg6
I0
sg7
F0.49416219465516487
sg8
I125978
sg9
I01
sg10
F3.25
sg11
g5
sg12
S'ben.glisan@enron.com'
p435
sg14
I71023
sg15
F0.21612705968164342
sg16
F0.5058378053448351
sg17
g5
sg18
I874
sg19
g5
sg20
I16
sg21
I200308
sg22
F0.09901720056213864
sg23
F0.4715928204709012
sg24
g5
sg25
I600000
sg26
I778546
sg27
I52
sg28
I6
sg29
I393818
sg30
F0.006872852233676976
sg31
I274975
sg32
F0.055823228147174685
sg33
I1272284
sg34
F0.055823228147174685
sg35
I384728
sg36
F1.6341796117377778
sg37
F0.1574396911381421
sg38
I0
sg39
F54.625
ss.